
Allocating common symbols
Common symbol       size              file

virtualMemoryService
                    0x810             /home/senior/Desktop/SandBoxGit/objects/KernelMain.o
sharedMemoryService
                    0x810             /home/senior/Desktop/SandBoxGit/objects/KernelMain.o
rtl8139_device      0x28              /home/senior/Desktop/SandBoxGit/objects/rtl8139.o
ipiService          0x810             /home/senior/Desktop/SandBoxGit/objects/KernelMain.o
physicalMemoryService
                    0x810             /home/senior/Desktop/SandBoxGit/objects/KernelMain.o
interruptDescriptorTablePointer
                    0x10              /home/senior/Desktop/SandBoxGit/objects/KernelMain.o
apicManagerService  0x810             /home/senior/Desktop/SandBoxGit/objects/KernelMain.o
globalDescriptorTablePointer
                    0x6               /home/senior/Desktop/SandBoxGit/objects/KernelMain.o
hamadaStruct_object
                    0xc               /home/senior/Desktop/SandBoxGit/objects/KernelMain.o
pciService          0x810             /home/senior/Desktop/SandBoxGit/objects/KernelMain.o
consoleService      0x810             /home/senior/Desktop/SandBoxGit/objects/KernelMain.o
current_packet_ptr  0x4               /home/senior/Desktop/SandBoxGit/objects/rtl8139.o
kernel              0x13920           /home/senior/Desktop/SandBoxGit/objects/KernelMain.o
interruptService    0x810             /home/senior/Desktop/SandBoxGit/objects/KernelMain.o
service1_object     0xc               /home/senior/Desktop/SandBoxGit/objects/KernelMain.o
service1Service     0x810             /home/senior/Desktop/SandBoxGit/objects/KernelMain.o
hamadaStructService
                    0x810             /home/senior/Desktop/SandBoxGit/objects/KernelMain.o

Memory Configuration

Name             Origin             Length             Attributes
*default*        0x0000000000000000 0xffffffffffffffff

Linker script and memory map


.text           0x0000000000000000    0x26a28
 KernelWrapper.o(.text)
 .text          0x0000000000000000       0x35 /home/senior/Desktop/SandBoxGit/objects/KernelWrapper.o
                0x0000000000000000                _start
 gdt.o(.text)
 *fill*         0x0000000000000035        0xb 
 .text          0x0000000000000040       0x23 /home/senior/Desktop/SandBoxGit/objects/gdt.o
                0x0000000000000040                gdtInit
                0x000000000000005b                tssFlush
 idt.o(.text)
 *fill*         0x0000000000000063        0xd 
 .text          0x0000000000000070      0xb72 /home/senior/Desktop/SandBoxGit/objects/idt.o
                0x0000000000000070                idtInit
                0x0000000000000079                isr0
                0x0000000000000083                isr1
                0x000000000000008d                isr2
                0x0000000000000097                isr3
                0x00000000000000a1                isr4
                0x00000000000000ab                isr5
                0x00000000000000b5                isr6
                0x00000000000000bf                isr7
                0x00000000000000c9                isr8
                0x00000000000000d1                isr9
                0x00000000000000db                isr10
                0x00000000000000e3                isr11
                0x00000000000000eb                isr12
                0x00000000000000f3                isr13
                0x00000000000000fb                isr14
                0x0000000000000103                isr15
                0x000000000000010d                isr16
                0x0000000000000117                isr17
                0x0000000000000121                isr18
                0x000000000000012b                isr19
                0x0000000000000135                isr20
                0x000000000000013f                isr21
                0x0000000000000149                isr22
                0x0000000000000153                isr23
                0x000000000000015d                isr24
                0x0000000000000167                isr25
                0x0000000000000171                isr26
                0x000000000000017b                isr27
                0x0000000000000185                isr28
                0x000000000000018f                isr29
                0x0000000000000199                isr30
                0x00000000000001a3                isr31
                0x00000000000001ad                irq0
                0x00000000000001b7                irq1
                0x00000000000001c1                irq2
                0x00000000000001cb                irq3
                0x00000000000001d5                irq4
                0x00000000000001df                irq5
                0x00000000000001e9                irq6
                0x00000000000001f3                irq7
                0x00000000000001fd                irq8
                0x0000000000000207                irq9
                0x0000000000000211                irq10
                0x000000000000021b                irq11
                0x0000000000000225                irq12
                0x000000000000022f                irq13
                0x0000000000000239                irq14
                0x0000000000000243                irq15
                0x000000000000024d                irq16
                0x0000000000000257                irq17
                0x0000000000000261                irq18
                0x000000000000026b                irq19
                0x0000000000000275                irq20
                0x000000000000027f                irq21
                0x0000000000000289                irq22
                0x0000000000000293                irq23
                0x000000000000029d                irq24
                0x00000000000002a7                irq25
                0x00000000000002b1                irq26
                0x00000000000002bb                irq27
                0x00000000000002c5                irq28
                0x00000000000002cf                irq29
                0x00000000000002d9                irq30
                0x00000000000002e3                irq31
                0x00000000000002ed                irq32
                0x00000000000002f7                irq33
                0x0000000000000301                irq34
                0x000000000000030b                irq35
                0x0000000000000315                irq36
                0x000000000000031f                irq37
                0x0000000000000329                irq38
                0x0000000000000333                irq39
                0x000000000000033d                irq40
                0x0000000000000347                irq41
                0x0000000000000351                irq42
                0x000000000000035b                irq43
                0x0000000000000365                irq44
                0x000000000000036f                irq45
                0x0000000000000379                irq46
                0x0000000000000383                irq47
                0x000000000000038d                irq48
                0x0000000000000397                irq49
                0x00000000000003a1                irq50
                0x00000000000003ab                irq51
                0x00000000000003b5                irq52
                0x00000000000003bf                irq53
                0x00000000000003c9                irq54
                0x00000000000003d3                irq55
                0x00000000000003dd                irq56
                0x00000000000003e7                irq57
                0x00000000000003f1                irq58
                0x00000000000003fb                irq59
                0x0000000000000405                irq60
                0x000000000000040f                irq61
                0x0000000000000419                irq62
                0x0000000000000423                irq63
                0x000000000000042d                apirq0
                0x0000000000000437                apirq1
                0x0000000000000441                apirq2
                0x000000000000044b                apirq3
                0x0000000000000455                apirq4
                0x000000000000045f                apirq5
                0x0000000000000469                apirq6
                0x0000000000000473                apirq7
                0x000000000000047d                apirq8
                0x0000000000000487                apirq9
                0x0000000000000491                apirq10
                0x000000000000049b                apirq11
                0x00000000000004a5                apirq12
                0x00000000000004af                apirq13
                0x00000000000004b9                apirq14
                0x00000000000004c3                apirq15
                0x00000000000004cd                apirq16
                0x00000000000004d7                apirq17
                0x00000000000004e1                apirq18
                0x00000000000004eb                apirq19
                0x00000000000004f5                apirq20
                0x00000000000004ff                apirq21
                0x0000000000000509                apirq22
                0x0000000000000513                apirq23
                0x000000000000051d                apirq24
                0x0000000000000527                apirq25
                0x0000000000000531                apirq26
                0x000000000000053b                apirq27
                0x0000000000000545                apirq28
                0x000000000000054f                apirq29
                0x0000000000000559                apirq30
                0x0000000000000563                apirq31
                0x000000000000056d                swirq0
                0x000000000000057a                swirq1
                0x0000000000000587                swirq2
                0x0000000000000594                swirq3
                0x00000000000005a1                swirq4
                0x00000000000005ae                swirq5
                0x00000000000005bb                swirq6
                0x00000000000005c8                swirq7
                0x00000000000005d5                swirq8
                0x00000000000005e2                swirq9
                0x00000000000005ef                swirq10
                0x00000000000005fc                swirq11
                0x0000000000000609                swirq12
                0x0000000000000616                swirq13
                0x0000000000000623                swirq14
                0x0000000000000630                swirq15
                0x000000000000063d                swirq16
                0x000000000000064a                swirq17
                0x0000000000000657                swirq18
                0x0000000000000664                swirq19
                0x0000000000000671                swirq20
                0x000000000000067e                swirq21
                0x000000000000068b                swirq22
                0x0000000000000698                swirq23
                0x00000000000006a5                swirq24
                0x00000000000006b2                swirq25
                0x00000000000006bf                swirq26
                0x00000000000006cc                swirq27
                0x00000000000006d9                swirq28
                0x00000000000006e6                swirq29
                0x00000000000006f3                swirq30
                0x0000000000000700                swirq31
                0x000000000000070d                swirq32
                0x000000000000071a                swirq33
                0x0000000000000727                swirq34
                0x0000000000000734                swirq35
                0x0000000000000741                swirq36
                0x000000000000074e                swirq37
                0x000000000000075b                swirq38
                0x0000000000000768                swirq39
                0x0000000000000775                swirq40
                0x0000000000000782                swirq41
                0x000000000000078f                swirq42
                0x000000000000079c                swirq43
                0x00000000000007a9                swirq44
                0x00000000000007b6                swirq45
                0x00000000000007c3                swirq46
                0x00000000000007d0                swirq47
                0x00000000000007dd                swirq48
                0x00000000000007ea                swirq49
                0x00000000000007f7                swirq50
                0x0000000000000804                swirq51
                0x0000000000000811                swirq52
                0x000000000000081e                swirq53
                0x000000000000082b                swirq54
                0x0000000000000838                swirq55
                0x0000000000000845                swirq56
                0x0000000000000852                swirq57
                0x000000000000085f                swirq58
                0x000000000000086c                swirq59
                0x0000000000000879                swirq60
                0x0000000000000886                swirq61
                0x0000000000000893                swirq62
                0x00000000000008a0                swirq63
                0x00000000000008ad                swirq64
                0x00000000000008ba                swirq65
                0x00000000000008c7                swirq66
                0x00000000000008d4                swirq67
                0x00000000000008e1                swirq68
                0x00000000000008ee                swirq69
                0x00000000000008fb                swirq70
                0x0000000000000908                swirq71
                0x0000000000000915                swirq72
                0x0000000000000922                swirq73
                0x000000000000092f                swirq74
                0x000000000000093c                swirq75
                0x0000000000000949                swirq76
                0x0000000000000956                swirq77
                0x0000000000000963                swirq78
                0x0000000000000970                swirq79
                0x000000000000097d                swirq80
                0x000000000000098a                swirq81
                0x0000000000000997                swirq82
                0x00000000000009a4                swirq83
                0x00000000000009b1                swirq84
                0x00000000000009be                swirq85
                0x00000000000009cb                swirq86
                0x00000000000009d8                swirq87
                0x00000000000009e5                swirq88
                0x00000000000009f2                swirq89
                0x00000000000009ff                swirq90
                0x0000000000000a0c                swirq91
                0x0000000000000a19                swirq92
                0x0000000000000a26                swirq93
                0x0000000000000a33                swirq94
                0x0000000000000a40                swirq95
                0x0000000000000a4d                swirq96
                0x0000000000000a5a                swirq97
                0x0000000000000a67                swirq98
                0x0000000000000a74                swirq99
                0x0000000000000a81                swirq100
                0x0000000000000a8e                swirq101
                0x0000000000000a9b                swirq102
                0x0000000000000aa8                swirq103
                0x0000000000000ab5                swirq104
                0x0000000000000ac2                swirq105
                0x0000000000000acf                swirq106
                0x0000000000000adc                swirq107
                0x0000000000000ae9                swirq108
                0x0000000000000af6                swirq109
                0x0000000000000b03                swirq110
                0x0000000000000b10                swirq111
                0x0000000000000b1d                swirq112
                0x0000000000000b2a                swirq113
                0x0000000000000b37                swirq114
                0x0000000000000b44                swirq115
                0x0000000000000b51                swirq116
                0x0000000000000b5e                swirq117
                0x0000000000000b6b                swirq118
                0x0000000000000b78                swirq119
                0x0000000000000b85                swirq120
                0x0000000000000b92                swirq121
                0x0000000000000b9f                swirq122
                0x0000000000000bac                swirq123
                0x0000000000000bb9                swirq124
                0x0000000000000bc6                swirq125
                0x0000000000000bd3                swirq126
                0x0000000000000be0                isr255
 isr.o(.text)
 *fill*         0x0000000000000be2        0xe 
 .text          0x0000000000000bf0       0x45 /home/senior/Desktop/SandBoxGit/objects/isr.o
                0x0000000000000bf0                idt_common_stub
 pit.o(.text)
 *fill*         0x0000000000000c35        0xb 
 .text          0x0000000000000c40      0x2ee /home/senior/Desktop/SandBoxGit/objects/pit.o
                0x0000000000000c40                setTimer
                0x0000000000000c50                pit_sleep
                0x0000000000000d50                initializePit
                0x0000000000000d60                setFrequencyTimer
                0x0000000000000d70                pit_fire
 PhysicalMemory.o(.text)
 *fill*         0x0000000000000f2e        0x2 
 .text          0x0000000000000f30      0xa8a /home/senior/Desktop/SandBoxGit/objects/PhysicalMemory.o
                0x0000000000000f30                isAddress
                0x0000000000000f80                isUsableAddress
                0x0000000000000ff0                getVirtualAddress
                0x0000000000001040                addPhysicalMemoryEntry
                0x00000000000010c0                printPhysicalMemory
                0x0000000000001180                deallocatePhysicalFrame
                0x0000000000001230                createPhysicalPagesBitMap
                0x0000000000001380                initializePhysicalMemoryFrame
                0x0000000000001440                initializePhysicalMemory
                0x0000000000001610                getReservedAndUsableMemorySize
                0x0000000000001620                set_bit
                0x0000000000001650                clear_bit
                0x0000000000001680                get_bit
                0x00000000000016b0                allocateOnePhysicalFrame
                0x00000000000017a0                allocatePhysicalFrames
                0x0000000000001810                deallocateOnePhysicalFrameCollection
                0x0000000000001890                allocateOnePhysicalFrameCollection
                0x00000000000019a0                AllocateUsableCollection
 MemoryUtilities_asm.o(.text)
 *fill*         0x00000000000019ba        0x6 
 .text          0x00000000000019c0      0x5fe /home/senior/Desktop/SandBoxGit/objects/MemoryUtilities_asm.o
                0x00000000000019c0                memcpy8
                0x00000000000019c0                memcpy
                0x00000000000019c0                memcpyc
                0x00000000000019e4                memcpy16
                0x0000000000001a0c                memcpy32
                0x0000000000001a34                memcpy64
                0x0000000000001a44                memmove
                0x0000000000001a44                memmovec
                0x0000000000001a44                memmove8
                0x0000000000001a65                memmove16
                0x0000000000001a8b                memmove32
                0x0000000000001ab1                memmove64
                0x0000000000001ad8                memset8
                0x0000000000001ad8                memset
                0x0000000000001ad8                memsetc
                0x0000000000001aef                memset16
                0x0000000000001b05                memset32
                0x0000000000001b19                memset64
                0x0000000000001b2c                memcmp8
                0x0000000000001b2c                memcmp
                0x0000000000001b2c                memcmpc
                0x0000000000001b6a                memcmp16
                0x0000000000001baa                memcmp32
                0x0000000000001bf1                memcmp64
                0x0000000000001c0e                rmemcmp8
                0x0000000000001c0e                rmemcmpc
                0x0000000000001c0e                rmemcmp
                0x0000000000001c80                rmemcmp16
                0x0000000000001d01                rmemcmp32
                0x0000000000001d8f                rmemcmp64
                0x0000000000001de4                scanc
                0x0000000000001de4                scan8
                0x0000000000001e0a                scan16
                0x0000000000001e30                scan32
                0x0000000000001e54                scan64
                0x0000000000001e77                rscanc
                0x0000000000001e77                rscan8
                0x0000000000001ea3                rscan16
                0x0000000000001ed3                rscan32
                0x0000000000001f07                rscan64
                0x0000000000001f46                strlen
                0x0000000000001f65                strcmp_sse42
                0x0000000000001f9d                strlen_sse42
 ClockUtils.o(.text)
 *fill*         0x0000000000001fbe        0x2 
 .text          0x0000000000001fc0      0x5ef /home/senior/Desktop/SandBoxGit/objects/ClockUtils.o
                0x0000000000001fc0                getUpdateInProgressFlag
                0x0000000000002000                getRTCRegister
                0x0000000000002030                timeStamp32
                0x0000000000002160                timeStamp64
                0x0000000000002190                getRTCTimeStamp32
                0x0000000000002370                getRTCTimeStamp64
                0x0000000000002550                RTCSleep
                0x0000000000002580                random
 MemoryUtilities.o(.text)
 *fill*         0x00000000000025af        0x1 
 .text          0x00000000000025b0      0x384 /home/senior/Desktop/SandBoxGit/objects/MemoryUtilities.o
                0x00000000000025b0                strstr
                0x0000000000002690                scanmem
                0x0000000000002750                strncat
                0x0000000000002790                strcat
                0x00000000000027e0                strncpy
                0x00000000000027f0                strcpy
                0x0000000000002830                strcmp
                0x00000000000028b0                lstrcmp
 memcpy_asm.o(.text)
 *fill*         0x0000000000002934        0xc 
 .text          0x0000000000002940     0x772d /home/senior/Desktop/SandBoxGit/objects/memcpy_asm.o
                0x0000000000002940                fast_memcpy1
                0x000000000000294a                fast_memcpy2
                0x0000000000002956                fast_memcpy3
                0x0000000000002968                fast_memcpy4
                0x0000000000002972                fast_memcpy5
                0x0000000000002982                fast_memcpy6
                0x0000000000002994                fast_memcpy7
                0x00000000000029ac                fast_memcpy8
                0x00000000000029b8                fast_memcpy9
                0x00000000000029ca                fast_memcpy10
                0x00000000000029de                fast_memcpy11
                0x00000000000029f8                fast_memcpy12
                0x0000000000002a0a                fast_memcpy13
                0x0000000000002a22                fast_memcpy14
                0x0000000000002a3c                fast_memcpy15
                0x0000000000002a5c                fast_memcpy16
                0x0000000000002a6a                fast_memcpy17
                0x0000000000002a7e                fast_memcpy18
                0x0000000000002a94                fast_memcpy19
                0x0000000000002ab0                fast_memcpy20
                0x0000000000002ac4                fast_memcpy21
                0x0000000000002ade                fast_memcpy22
                0x0000000000002afa                fast_memcpy23
                0x0000000000002b1c                fast_memcpy24
                0x0000000000002b32                fast_memcpy25
                0x0000000000002b4e                fast_memcpy26
                0x0000000000002b6c                fast_memcpy27
                0x0000000000002b90                fast_memcpy28
                0x0000000000002bac                fast_memcpy29
                0x0000000000002bce                fast_memcpy30
                0x0000000000002bf2                fast_memcpy31
                0x0000000000002c1c                fast_memcpy32
                0x0000000000002c34                fast_memcpy33
                0x0000000000002c52                fast_memcpy34
                0x0000000000002c72                fast_memcpy35
                0x0000000000002c98                fast_memcpy36
                0x0000000000002cb6                fast_memcpy37
                0x0000000000002cda                fast_memcpy38
                0x0000000000002d00                fast_memcpy39
                0x0000000000002d2c                fast_memcpy40
                0x0000000000002d4c                fast_memcpy41
                0x0000000000002d72                fast_memcpy42
                0x0000000000002d9a                fast_memcpy43
                0x0000000000002dc8                fast_memcpy44
                0x0000000000002dee                fast_memcpy45
                0x0000000000002e1a                fast_memcpy46
                0x0000000000002e48                fast_memcpy47
                0x0000000000002e7c                fast_memcpy48
                0x0000000000002e9e                fast_memcpy49
                0x0000000000002ec6                fast_memcpy50
                0x0000000000002ef0                fast_memcpy51
                0x0000000000002f20                fast_memcpy52
                0x0000000000002f48                fast_memcpy53
                0x0000000000002f76                fast_memcpy54
                0x0000000000002fa6                fast_memcpy55
                0x0000000000002fdc                fast_memcpy56
                0x0000000000003006                fast_memcpy57
                0x0000000000003036                fast_memcpy58
                0x0000000000003068                fast_memcpy59
                0x00000000000030a0                fast_memcpy60
                0x00000000000030d0                fast_memcpy61
                0x0000000000003106                fast_memcpy62
                0x000000000000313e                fast_memcpy63
                0x000000000000317c                fast_memcpy64
                0x00000000000031a8                fast_memcpy65
                0x00000000000031da                fast_memcpy66
                0x000000000000320e                fast_memcpy67
                0x0000000000003248                fast_memcpy68
                0x000000000000327a                fast_memcpy69
                0x00000000000032b2                fast_memcpy70
                0x00000000000032ec                fast_memcpy71
                0x000000000000332c                fast_memcpy72
                0x0000000000003360                fast_memcpy73
                0x000000000000339a                fast_memcpy74
                0x00000000000033d6                fast_memcpy75
                0x0000000000003418                fast_memcpy76
                0x0000000000003452                fast_memcpy77
                0x0000000000003492                fast_memcpy78
                0x00000000000034d4                fast_memcpy79
                0x000000000000351c                fast_memcpy80
                0x0000000000003552                fast_memcpy81
                0x000000000000358e                fast_memcpy82
                0x00000000000035cc                fast_memcpy83
                0x0000000000003610                fast_memcpy84
                0x000000000000364c                fast_memcpy85
                0x000000000000368e                fast_memcpy86
                0x00000000000036d2                fast_memcpy87
                0x000000000000371c                fast_memcpy88
                0x000000000000375a                fast_memcpy89
                0x000000000000379e                fast_memcpy90
                0x00000000000037e4                fast_memcpy91
                0x0000000000003830                fast_memcpy92
                0x0000000000003874                fast_memcpy93
                0x00000000000038be                fast_memcpy94
                0x000000000000390a                fast_memcpy95
                0x000000000000395c                fast_memcpy96
                0x000000000000399c                fast_memcpy97
                0x00000000000039e2                fast_memcpy98
                0x0000000000003a2a                fast_memcpy99
                0x0000000000003a78                fast_memcpy100
                0x0000000000003abe                fast_memcpy101
                0x0000000000003b0a                fast_memcpy102
                0x0000000000003b58                fast_memcpy103
                0x0000000000003bac                fast_memcpy104
                0x0000000000003bf4                fast_memcpy105
                0x0000000000003c42                fast_memcpy106
                0x0000000000003c92                fast_memcpy107
                0x0000000000003ce8                fast_memcpy108
                0x0000000000003d36                fast_memcpy109
                0x0000000000003d8a                fast_memcpy110
                0x0000000000003de0                fast_memcpy111
                0x0000000000003e3c                fast_memcpy112
                0x0000000000003e86                fast_memcpy113
                0x0000000000003ed6                fast_memcpy114
                0x0000000000003f28                fast_memcpy115
                0x0000000000003f80                fast_memcpy116
                0x0000000000003fd0                fast_memcpy117
                0x0000000000004026                fast_memcpy118
                0x000000000000407e                fast_memcpy119
                0x00000000000040dc                fast_memcpy120
                0x000000000000412e                fast_memcpy121
                0x0000000000004186                fast_memcpy122
                0x00000000000041e0                fast_memcpy123
                0x0000000000004240                fast_memcpy124
                0x0000000000004298                fast_memcpy125
                0x00000000000042f6                fast_memcpy126
                0x0000000000004356                fast_memcpy127
                0x00000000000043bc                fast_memcpy128
                0x0000000000004410                fast_memcpy129
                0x0000000000004470                fast_memcpy130
                0x00000000000044d2                fast_memcpy131
                0x0000000000004540                fast_memcpy132
                0x00000000000045a0                fast_memcpy133
                0x000000000000460c                fast_memcpy134
                0x000000000000467a                fast_memcpy135
                0x00000000000046f4                fast_memcpy136
                0x0000000000004756                fast_memcpy137
                0x00000000000047c4                fast_memcpy138
                0x0000000000004834                fast_memcpy139
                0x00000000000048b0                fast_memcpy140
                0x000000000000491e                fast_memcpy141
                0x0000000000004998                fast_memcpy142
                0x0000000000004a14                fast_memcpy143
                0x0000000000004a9c                fast_memcpy144
                0x0000000000004b02                fast_memcpy145
                0x0000000000004b74                fast_memcpy146
                0x0000000000004be8                fast_memcpy147
                0x0000000000004c68                fast_memcpy148
                0x0000000000004cda                fast_memcpy149
                0x0000000000004d58                fast_memcpy150
                0x0000000000004dd8                fast_memcpy151
                0x0000000000004e64                fast_memcpy152
                0x0000000000004ed8                fast_memcpy153
                0x0000000000004f58                fast_memcpy154
                0x0000000000004fda                fast_memcpy155
                0x0000000000005068                fast_memcpy156
                0x00000000000050e8                fast_memcpy157
                0x0000000000005174                fast_memcpy158
                0x0000000000005202                fast_memcpy159
                0x000000000000529c                fast_memcpy160
                0x0000000000005314                fast_memcpy161
                0x0000000000005398                fast_memcpy162
                0x000000000000541e                fast_memcpy163
                0x00000000000054b0                fast_memcpy164
                0x0000000000005534                fast_memcpy165
                0x00000000000055c4                fast_memcpy166
                0x0000000000005656                fast_memcpy167
                0x00000000000056f4                fast_memcpy168
                0x000000000000577a                fast_memcpy169
                0x000000000000580c                fast_memcpy170
                0x00000000000058a0                fast_memcpy171
                0x0000000000005940                fast_memcpy172
                0x00000000000059d2                fast_memcpy173
                0x0000000000005a70                fast_memcpy174
                0x0000000000005b10                fast_memcpy175
                0x0000000000005bbc                fast_memcpy176
                0x0000000000005c46                fast_memcpy177
                0x0000000000005cdc                fast_memcpy178
                0x0000000000005d74                fast_memcpy179
                0x0000000000005e18                fast_memcpy180
                0x0000000000005eae                fast_memcpy181
                0x0000000000005f50                fast_memcpy182
                0x0000000000005ff4                fast_memcpy183
                0x00000000000060a4                fast_memcpy184
                0x000000000000613c                fast_memcpy185
                0x00000000000061e0                fast_memcpy186
                0x0000000000006286                fast_memcpy187
                0x0000000000006338                fast_memcpy188
                0x00000000000063dc                fast_memcpy189
                0x000000000000648c                fast_memcpy190
                0x000000000000653e                fast_memcpy191
                0x00000000000065fc                fast_memcpy192
                0x0000000000006698                fast_memcpy193
                0x0000000000006740                fast_memcpy194
                0x00000000000067ea                fast_memcpy195
                0x00000000000068a0                fast_memcpy196
                0x0000000000006948                fast_memcpy197
                0x00000000000069fc                fast_memcpy198
                0x0000000000006ab2                fast_memcpy199
                0x0000000000006b74                fast_memcpy200
                0x0000000000006c1e                fast_memcpy201
                0x0000000000006cd4                fast_memcpy202
                0x0000000000006d8c                fast_memcpy203
                0x0000000000006e50                fast_memcpy204
                0x0000000000006f06                fast_memcpy205
                0x0000000000006fc8                fast_memcpy206
                0x000000000000708c                fast_memcpy207
                0x000000000000715c                fast_memcpy208
                0x000000000000720a                fast_memcpy209
                0x00000000000072c4                fast_memcpy210
                0x0000000000007380                fast_memcpy211
                0x0000000000007448                fast_memcpy212
                0x0000000000007502                fast_memcpy213
                0x00000000000075c8                fast_memcpy214
                0x0000000000007690                fast_memcpy215
                0x0000000000007764                fast_memcpy216
                0x0000000000007820                fast_memcpy217
                0x00000000000078e8                fast_memcpy218
                0x00000000000079b2                fast_memcpy219
                0x0000000000007a88                fast_memcpy220
                0x0000000000007b50                fast_memcpy221
                0x0000000000007c24                fast_memcpy222
                0x0000000000007cfa                fast_memcpy223
                0x0000000000007ddc                fast_memcpy224
                0x0000000000007e9c                fast_memcpy225
                0x0000000000007f68                fast_memcpy226
                0x0000000000008036                fast_memcpy227
                0x0000000000008110                fast_memcpy228
                0x00000000000081dc                fast_memcpy229
                0x00000000000082b4                fast_memcpy230
                0x000000000000838e                fast_memcpy231
                0x0000000000008474                fast_memcpy232
                0x0000000000008542                fast_memcpy233
                0x000000000000861c                fast_memcpy234
                0x00000000000086f8                fast_memcpy235
                0x00000000000087e0                fast_memcpy236
                0x00000000000088ba                fast_memcpy237
                0x00000000000089a0                fast_memcpy238
                0x0000000000008a88                fast_memcpy239
                0x0000000000008b7c                fast_memcpy240
                0x0000000000008c4e                fast_memcpy241
                0x0000000000008d2c                fast_memcpy242
                0x0000000000008e0c                fast_memcpy243
                0x0000000000008ef8                fast_memcpy244
                0x0000000000008fd6                fast_memcpy245
                0x00000000000090c0                fast_memcpy246
                0x00000000000091ac                fast_memcpy247
                0x00000000000092a4                fast_memcpy248
                0x0000000000009384                fast_memcpy249
                0x0000000000009470                fast_memcpy250
                0x000000000000955e                fast_memcpy251
                0x0000000000009658                fast_memcpy252
                0x0000000000009744                fast_memcpy253
                0x000000000000983c                fast_memcpy254
                0x0000000000009936                fast_memcpy255
                0x0000000000009a3c                fast_memcpy256
                0x0000000000009b20                fast_ndfs_full_packet_copy
 memcpy.o(.text)
 *fill*         0x000000000000a06d        0x3 
 .text          0x000000000000a070     0x1131 /home/senior/Desktop/SandBoxGit/objects/memcpy.o
                0x000000000000a070                init_fast_memcpy_handlers
                0x000000000000b150                fast_memcpy
 memswap_asm.o(.text)
 *fill*         0x000000000000b1a1        0xf 
 .text          0x000000000000b1b0     0xdca0 /home/senior/Desktop/SandBoxGit/objects/memswap_asm.o
                0x000000000000b1b0                fast_memswap1
                0x000000000000b1c2                fast_memswap2
                0x000000000000b1d8                fast_memswap3
                0x000000000000b1fe                fast_memswap4
                0x000000000000b210                fast_memswap5
                0x000000000000b232                fast_memswap6
                0x000000000000b258                fast_memswap7
                0x000000000000b28e                fast_memswap8
                0x000000000000b2a0                fast_memswap9
                0x000000000000b2c2                fast_memswap10
                0x000000000000b2e8                fast_memswap11
                0x000000000000b31e                fast_memswap12
                0x000000000000b340                fast_memswap13
                0x000000000000b372                fast_memswap14
                0x000000000000b3a8                fast_memswap15
                0x000000000000b3ee                fast_memswap16
                0x000000000000b404                fast_memswap17
                0x000000000000b42a                fast_memswap18
                0x000000000000b454                fast_memswap19
                0x000000000000b48e                fast_memswap20
                0x000000000000b4b4                fast_memswap21
                0x000000000000b4ea                fast_memswap22
                0x000000000000b524                fast_memswap23
                0x000000000000b56e                fast_memswap24
                0x000000000000b594                fast_memswap25
                0x000000000000b5ca                fast_memswap26
                0x000000000000b604                fast_memswap27
                0x000000000000b64e                fast_memswap28
                0x000000000000b684                fast_memswap29
                0x000000000000b6ca                fast_memswap30
                0x000000000000b714                fast_memswap31
                0x000000000000b76e                fast_memswap32
                0x000000000000b798                fast_memswap33
                0x000000000000b7d2                fast_memswap34
                0x000000000000b810                fast_memswap35
                0x000000000000b85e                fast_memswap36
                0x000000000000b898                fast_memswap37
                0x000000000000b8e2                fast_memswap38
                0x000000000000b930                fast_memswap39
                0x000000000000b98e                fast_memswap40
                0x000000000000b9c8                fast_memswap41
                0x000000000000ba12                fast_memswap42
                0x000000000000ba60                fast_memswap43
                0x000000000000babe                fast_memswap44
                0x000000000000bb08                fast_memswap45
                0x000000000000bb62                fast_memswap46
                0x000000000000bbc0                fast_memswap47
                0x000000000000bc2e                fast_memswap48
                0x000000000000bc6c                fast_memswap49
                0x000000000000bcba                fast_memswap50
                0x000000000000bd0c                fast_memswap51
                0x000000000000bd6e                fast_memswap52
                0x000000000000bdbc                fast_memswap53
                0x000000000000be1a                fast_memswap54
                0x000000000000be7c                fast_memswap55
                0x000000000000beee                fast_memswap56
                0x000000000000bf3c                fast_memswap57
                0x000000000000bf9a                fast_memswap58
                0x000000000000bffc                fast_memswap59
                0x000000000000c06e                fast_memswap60
                0x000000000000c0cc                fast_memswap61
                0x000000000000c13a                fast_memswap62
                0x000000000000c1ac                fast_memswap63
                0x000000000000c22e                fast_memswap64
                0x000000000000c280                fast_memswap65
                0x000000000000c2e2                fast_memswap66
                0x000000000000c348                fast_memswap67
                0x000000000000c3be                fast_memswap68
                0x000000000000c420                fast_memswap69
                0x000000000000c492                fast_memswap70
                0x000000000000c508                fast_memswap71
                0x000000000000c58e                fast_memswap72
                0x000000000000c5f0                fast_memswap73
                0x000000000000c662                fast_memswap74
                0x000000000000c6d8                fast_memswap75
                0x000000000000c75e                fast_memswap76
                0x000000000000c7d0                fast_memswap77
                0x000000000000c852                fast_memswap78
                0x000000000000c8d8                fast_memswap79
                0x000000000000c96e                fast_memswap80
                0x000000000000c9d4                fast_memswap81
                0x000000000000ca4a                fast_memswap82
                0x000000000000cac4                fast_memswap83
                0x000000000000cb4e                fast_memswap84
                0x000000000000cbc4                fast_memswap85
                0x000000000000cc4a                fast_memswap86
                0x000000000000ccd4                fast_memswap87
                0x000000000000cd6e                fast_memswap88
                0x000000000000cde4                fast_memswap89
                0x000000000000ce6a                fast_memswap90
                0x000000000000cef4                fast_memswap91
                0x000000000000cf8e                fast_memswap92
                0x000000000000d014                fast_memswap93
                0x000000000000d0aa                fast_memswap94
                0x000000000000d144                fast_memswap95
                0x000000000000d1ee                fast_memswap96
                0x000000000000d268                fast_memswap97
                0x000000000000d2f2                fast_memswap98
                0x000000000000d380                fast_memswap99
                0x000000000000d41e                fast_memswap100
                0x000000000000d4a8                fast_memswap101
                0x000000000000d542                fast_memswap102
                0x000000000000d5e0                fast_memswap103
                0x000000000000d68e                fast_memswap104
                0x000000000000d718                fast_memswap105
                0x000000000000d7b2                fast_memswap106
                0x000000000000d850                fast_memswap107
                0x000000000000d8fe                fast_memswap108
                0x000000000000d998                fast_memswap109
                0x000000000000da42                fast_memswap110
                0x000000000000daf0                fast_memswap111
                0x000000000000dbae                fast_memswap112
                0x000000000000dc3c                fast_memswap113
                0x000000000000dcda                fast_memswap114
                0x000000000000dd7c                fast_memswap115
                0x000000000000de2e                fast_memswap116
                0x000000000000decc                fast_memswap117
                0x000000000000df7a                fast_memswap118
                0x000000000000e02c                fast_memswap119
                0x000000000000e0ee                fast_memswap120
                0x000000000000e18c                fast_memswap121
                0x000000000000e23a                fast_memswap122
                0x000000000000e2ec                fast_memswap123
                0x000000000000e3ae                fast_memswap124
                0x000000000000e45c                fast_memswap125
                0x000000000000e51a                fast_memswap126
                0x000000000000e5dc                fast_memswap127
                0x000000000000e6ae                fast_memswap128
                0x000000000000e750                fast_memswap129
                0x000000000000e80e                fast_memswap130
                0x000000000000e8d0                fast_memswap131
                0x000000000000e9ae                fast_memswap132
                0x000000000000ea6c                fast_memswap133
                0x000000000000eb46                fast_memswap134
                0x000000000000ec24                fast_memswap135
                0x000000000000ed1e                fast_memswap136
                0x000000000000eddc                fast_memswap137
                0x000000000000eeb6                fast_memswap138
                0x000000000000ef94                fast_memswap139
                0x000000000000f08e                fast_memswap140
                0x000000000000f168                fast_memswap141
                0x000000000000f25e                fast_memswap142
                0x000000000000f358                fast_memswap143
                0x000000000000f46e                fast_memswap144
                0x000000000000f530                fast_memswap145
                0x000000000000f60e                fast_memswap146
                0x000000000000f6f0                fast_memswap147
                0x000000000000f7ee                fast_memswap148
                0x000000000000f8cc                fast_memswap149
                0x000000000000f9c6                fast_memswap150
                0x000000000000fac4                fast_memswap151
                0x000000000000fbde                fast_memswap152
                0x000000000000fcbc                fast_memswap153
                0x000000000000fdb6                fast_memswap154
                0x000000000000feb4                fast_memswap155
                0x000000000000ffce                fast_memswap156
                0x00000000000100c8                fast_memswap157
                0x00000000000101de                fast_memswap158
                0x00000000000102f8                fast_memswap159
                0x000000000001042e                fast_memswap160
                0x0000000000010510                fast_memswap161
                0x000000000001060e                fast_memswap162
                0x0000000000010710                fast_memswap163
                0x000000000001082e                fast_memswap164
                0x000000000001092c                fast_memswap165
                0x0000000000010a46                fast_memswap166
                0x0000000000010b64                fast_memswap167
                0x0000000000010c9e                fast_memswap168
                0x0000000000010d9c                fast_memswap169
                0x0000000000010eb6                fast_memswap170
                0x0000000000010fd4                fast_memswap171
                0x000000000001110e                fast_memswap172
                0x0000000000011228                fast_memswap173
                0x000000000001135e                fast_memswap174
                0x0000000000011498                fast_memswap175
                0x00000000000115ee                fast_memswap176
                0x00000000000116f0                fast_memswap177
                0x000000000001180e                fast_memswap178
                0x0000000000011930                fast_memswap179
                0x0000000000011a6e                fast_memswap180
                0x0000000000011b8c                fast_memswap181
                0x0000000000011cc6                fast_memswap182
                0x0000000000011e04                fast_memswap183
                0x0000000000011f5e                fast_memswap184
                0x000000000001207c                fast_memswap185
                0x00000000000121b6                fast_memswap186
                0x00000000000122f4                fast_memswap187
                0x000000000001244e                fast_memswap188
                0x0000000000012588                fast_memswap189
                0x00000000000126de                fast_memswap190
                0x0000000000012838                fast_memswap191
                0x00000000000129ae                fast_memswap192
                0x0000000000012ad0                fast_memswap193
                0x0000000000012c0e                fast_memswap194
                0x0000000000012d50                fast_memswap195
                0x0000000000012eae                fast_memswap196
                0x0000000000012fec                fast_memswap197
                0x0000000000013146                fast_memswap198
                0x00000000000132a4                fast_memswap199
                0x000000000001341e                fast_memswap200
                0x000000000001355c                fast_memswap201
                0x00000000000136b6                fast_memswap202
                0x0000000000013814                fast_memswap203
                0x000000000001398e                fast_memswap204
                0x0000000000013ae8                fast_memswap205
                0x0000000000013c5e                fast_memswap206
                0x0000000000013dd8                fast_memswap207
                0x0000000000013f6e                fast_memswap208
                0x00000000000140b0                fast_memswap209
                0x000000000001420e                fast_memswap210
                0x0000000000014370                fast_memswap211
                0x00000000000144ee                fast_memswap212
                0x000000000001464c                fast_memswap213
                0x00000000000147c6                fast_memswap214
                0x0000000000014944                fast_memswap215
                0x0000000000014ade                fast_memswap216
                0x0000000000014c3c                fast_memswap217
                0x0000000000014db6                fast_memswap218
                0x0000000000014f34                fast_memswap219
                0x00000000000150ce                fast_memswap220
                0x0000000000015248                fast_memswap221
                0x00000000000153de                fast_memswap222
                0x0000000000015578                fast_memswap223
                0x000000000001572e                fast_memswap224
                0x0000000000015890                fast_memswap225
                0x0000000000015a0e                fast_memswap226
                0x0000000000015b90                fast_memswap227
                0x0000000000015d2e                fast_memswap228
                0x0000000000015eac                fast_memswap229
                0x0000000000016046                fast_memswap230
                0x00000000000161e4                fast_memswap231
                0x000000000001639e                fast_memswap232
                0x000000000001651c                fast_memswap233
                0x00000000000166b6                fast_memswap234
                0x0000000000016854                fast_memswap235
                0x0000000000016a0e                fast_memswap236
                0x0000000000016ba8                fast_memswap237
                0x0000000000016d5e                fast_memswap238
                0x0000000000016f18                fast_memswap239
                0x00000000000170ee                fast_memswap240
                0x0000000000017270                fast_memswap241
                0x000000000001740e                fast_memswap242
                0x00000000000175b0                fast_memswap243
                0x000000000001776e                fast_memswap244
                0x000000000001790c                fast_memswap245
                0x0000000000017ac6                fast_memswap246
                0x0000000000017c84                fast_memswap247
                0x0000000000017e5e                fast_memswap248
                0x0000000000017ffc                fast_memswap249
                0x00000000000181b6                fast_memswap250
                0x0000000000018374                fast_memswap251
                0x000000000001854e                fast_memswap252
                0x0000000000018708                fast_memswap253
                0x00000000000188de                fast_memswap254
                0x0000000000018ab8                fast_memswap255
                0x0000000000018cae                fast_memswap256
 checksum_asm.o(.text)
 .text          0x0000000000018e50       0xe0 /home/senior/Desktop/SandBoxGit/objects/checksum_asm.o
                0x0000000000018e50                ip_hdr_checksum
 pci_device.o(.text)
 .text          0x0000000000018f30      0x344 /home/senior/Desktop/SandBoxGit/objects/pci_device.o
                0x0000000000018f30                pciConfigReadWord
                0x0000000000018f90                pciConfigWriteWord
                0x0000000000018ff0                pciConfig_initialize
                0x0000000000019060                pciConfigWriteCommand
                0x00000000000190d0                readStatus
                0x0000000000019100                pciConfigReadCommand
                0x0000000000019130                enablePCIBusMastering
                0x00000000000191c0                getPCIBarType
                0x00000000000191e0                getPCIBar
                0x0000000000019210                pciPrint
 pci_service.o(.text)
 *fill*         0x0000000000019274        0xc 
 .text          0x0000000000019280      0x380 /home/senior/Desktop/SandBoxGit/objects/pci_service.o
                0x0000000000019280                getPCIDevice
                0x00000000000192e0                getPCIDeviceAtIndex
                0x0000000000019350                getPCIDeviceCount
                0x00000000000193b0                pciServicePrint
                0x0000000000019420                initializePCIService
                0x00000000000194b0                scanBusesForCount
                0x0000000000019540                scanBusesForAllocation
                0x00000000000195e0                collectHWInventory
 memswap.o(.text)
 .text          0x0000000000019600     0x1131 /home/senior/Desktop/SandBoxGit/objects/memswap.o
                0x0000000000019600                init_fast_memswap_handlers
                0x000000000001a6e0                fast_memswap
 ipi.o(.text)
 *fill*         0x000000000001a731        0xf 
 .text          0x000000000001a740       0x56 /home/senior/Desktop/SandBoxGit/objects/ipi.o
                0x000000000001a740                sendIPI
                0x000000000001a770                InitializeIPI
 Terminal.o(.text)
 *fill*         0x000000000001a796        0xa 
 .text          0x000000000001a7a0      0x592 /home/senior/Desktop/SandBoxGit/objects/Terminal.o
                0x000000000001a7a0                terminal_initialize
                0x000000000001a830                terminal_putCharacterAt
                0x000000000001a870                terminal_putCharacter
                0x000000000001a8b0                terminal_putCharacterAndAdvanceString
                0x000000000001a9b0                terminal_putString
                0x000000000001aa10                terminal_putHexa
                0x000000000001ab50                terminal_putHexa128
                0x000000000001aca0                terminal_setPosition
                0x000000000001acb0                terminal_clearScreen
                0x000000000001ad10                terminal_getViewPort
 Console.o(.text)
 *fill*         0x000000000001ad32        0xe 
 .text          0x000000000001ad40      0x37c /home/senior/Desktop/SandBoxGit/objects/Console.o
                0x000000000001ad40                console_writeToTerminal
                0x000000000001ad70                console_addStringToCurrentTerminal
                0x000000000001ade0                console_switchTerminal
                0x000000000001ae50                console_addHexaToCurrentTerminal
                0x000000000001aed0                console_addHexa128ToCurrentTerminal
                0x000000000001af50                console_preInialize
 ACPI.o(.text)
 *fill*         0x000000000001b0bc        0x4 
 .text          0x000000000001b0c0      0x3dd /home/senior/Desktop/SandBoxGit/objects/ACPI.o
                0x000000000001b0c0                parseAPIC
                0x000000000001b1f0                parseAPICV1
                0x000000000001b280                parseAPICV2
                0x000000000001b360                parseACPIHeader
                0x000000000001b3d0                parseRSDT
                0x000000000001b400                init_acpi
 APIC.o(.text)
 *fill*         0x000000000001b49d        0x3 
 .text          0x000000000001b4a0      0x5d9 /home/senior/Desktop/SandBoxGit/objects/APIC.o
                0x000000000001b4a0                ioapicRead
                0x000000000001b4b0                ioapicWrite
                0x000000000001b4c0                initialize_apic
                0x000000000001b770                initAPICIO
                0x000000000001b7c0                sendFixedIPI
                0x000000000001b810                disableAPICTimer
                0x000000000001b830                enableAPICTimer
                0x000000000001b940                sendAPICEOI
                0x000000000001b960                mapAPICIRQ
                0x000000000001b9b0                startup
 ATADisk.o(.text)
 *fill*         0x000000000001ba79        0x7 
 .text          0x000000000001ba80     0x15e3 /home/senior/Desktop/SandBoxGit/objects/ATADisk.o
                0x000000000001ba80                writePIODiskSectors
                0x000000000001bdb0                readPIODiskSectors
                0x000000000001c070                writeDMADiskSectors
                0x000000000001c5f0                readDMADiskSectors
                0x000000000001cab0                initATADisk
                0x000000000001cca0                ide_400ns_delay
                0x000000000001ccd0                readATAStatus
                0x000000000001ccf0                writeDiskSectors
                0x000000000001cd30                readDiskSectors
                0x000000000001cd70                readDMADisk
                0x000000000001cec0                writeDMADisk
                0x000000000001d040                copyDMABuffer
 ATAManager.o(.text)
 *fill*         0x000000000001d063        0xd 
 .text          0x000000000001d070     0x10d7 /home/senior/Desktop/SandBoxGit/objects/ATAManager.o
                0x000000000001d070                getDiskPCIDevice
                0x000000000001d0d0                getDeviceTypeName
                0x000000000001d120                selectDrive
                0x000000000001d140                identifyDisk
                0x000000000001d200                identifyPCI
                0x000000000001d460                initATAManager
                0x000000000001d7a0                detectATADisks
                0x000000000001d990                getATADisk
                0x000000000001d9b0                ata_400ns_delay
                0x000000000001d9e0                ataHandleReadInterrupt
                0x000000000001dd00                ataHandleWriteInterrupt
                0x000000000001e0c0                ataHandleInterrupt
 TSSDescriptor.o(.text)
 *fill*         0x000000000001e147        0x9 
 .text          0x000000000001e150       0xe5 /home/senior/Desktop/SandBoxGit/objects/TSSDescriptor.o
                0x000000000001e150                setTSSDescriptorLimit
                0x000000000001e170                setTSSDescriptorBase
                0x000000000001e1b0                initializeTSSDescriptor
 GlobalDescriptorTableEntry.o(.text)
 *fill*         0x000000000001e235        0xb 
 .text          0x000000000001e240       0x63 /home/senior/Desktop/SandBoxGit/objects/GlobalDescriptorTableEntry.o
                0x000000000001e240                setGlobalDescriptorTableEntry
 GlobalDescriptorTable.o(.text)
 *fill*         0x000000000001e2a3        0xd 
 .text          0x000000000001e2b0      0x2a3 /home/senior/Desktop/SandBoxGit/objects/GlobalDescriptorTable.o
                0x000000000001e2b0                initGlobalDescriptorTable
 InterruptManager.o(.text)
 *fill*         0x000000000001e553        0xd 
 .text          0x000000000001e560      0x103 /home/senior/Desktop/SandBoxGit/objects/InterruptManager.o
                0x000000000001e560                registerInterrupt
                0x000000000001e5b0                serviceInterrupt
                0x000000000001e620                initializeInterruptManager
 InterruptDescriptorTable.o(.text)
 *fill*         0x000000000001e663        0xd 
 .text          0x000000000001e670     0x3ea2 /home/senior/Desktop/SandBoxGit/objects/InterruptDescriptorTable.o
                0x000000000001e670                irqSetMask
                0x000000000001e6e0                irqClearMask
                0x000000000001e750                setInterruptDescriptorTableEntry
                0x000000000001e7a0                registerExceptions
                0x000000000001ef50                registerIRQs
                0x000000000001fe70                registerAPIRQs
                0x0000000000020620                registerSWIRQs
                0x0000000000022440                setupInterruptDescriptorTable
 isr_stub.o(.text)
 *fill*         0x0000000000022512        0xe 
 .text          0x0000000000022520       0xc0 /home/senior/Desktop/SandBoxGit/objects/isr_stub.o
                0x0000000000022520                idt_handler
 APICManager.o(.text)
 .text          0x00000000000225e0      0x38b /home/senior/Desktop/SandBoxGit/objects/APICManager.o
                0x00000000000225e0                startupAPIC
                0x0000000000022640                getCurrentCoreId
                0x0000000000022690                touchCore
                0x0000000000022720                moveInitialKernelStack
                0x00000000000227f0                initAPICManager_service
 Ports.o(.text)
 *fill*         0x000000000002296b        0x5 
 .text          0x0000000000022970       0x54 /home/senior/Desktop/SandBoxGit/objects/Ports.o
                0x0000000000022970                outportb
                0x0000000000022980                outportw
                0x0000000000022990                outportl
                0x00000000000229a0                inportb
                0x00000000000229b0                inportw
                0x00000000000229c0                inportl
 CoreUtils.o(.text)
 *fill*         0x00000000000229c4        0xc 
 .text          0x00000000000229d0       0x43 /home/senior/Desktop/SandBoxGit/objects/CoreUtils.o
                0x00000000000229d0                createMask
                0x00000000000229f0                getAPICId
                0x0000000000022a00                writeLocalAPIC
                0x0000000000022a10                readLocalAPIC
 NetUtils.o(.text)
 *fill*         0x0000000000022a13        0xd 
 .text          0x0000000000022a20      0x13f /home/senior/Desktop/SandBoxGit/objects/NetUtils.o
                0x0000000000022a20                mac_str_to_bin
 MMIOUtils.o(.text)
 *fill*         0x0000000000022b5f        0x1 
 .text          0x0000000000022b60       0x74 /home/senior/Desktop/SandBoxGit/objects/MMIOUtils.o
                0x0000000000022b60                mmio_read8
                0x0000000000022b70                mmio_read16
                0x0000000000022b80                mmio_read32
                0x0000000000022b90                mmio_read64
                0x0000000000022ba0                mmio_write8
                0x0000000000022bb0                mmio_write16
                0x0000000000022bc0                mmio_write32
                0x0000000000022bd0                mmio_write64
 stdio.o(.text)
 *fill*         0x0000000000022bd4        0xc 
 .text          0x0000000000022be0      0x446 /home/senior/Desktop/SandBoxGit/objects/stdio.o
                0x0000000000022be0                sprintf_raw
                0x0000000000022f90                sprintf
 printk.o(.text)
 *fill*         0x0000000000023026        0xa 
 .text          0x0000000000023030      0x53b /home/senior/Desktop/SandBoxGit/objects/printk.o
                0x0000000000023030                printk
                0x0000000000023180                printk_network
                0x00000000000232d0                printk_debug
                0x0000000000023420                printk_fs
 service1_K.o(.text)
 *fill*         0x000000000002356b        0x5 
 .text          0x0000000000023570       0x18 /home/senior/Desktop/SandBoxGit/objects/service1_K.o
                0x0000000000023570                method1
                0x0000000000023580                method2
 checksum.o(.text)
 *fill*         0x0000000000023588        0x8 
 .text          0x0000000000023590       0x57 /home/senior/Desktop/SandBoxGit/objects/checksum.o
                0x0000000000023590                calcsum
 MemoryPageMap.o(.text)
 *fill*         0x00000000000235e7        0x9 
 .text          0x00000000000235f0      0xfac /home/senior/Desktop/SandBoxGit/objects/MemoryPageMap.o
                0x00000000000235f0                LinkThirdStageToCollectionPhysical_Wrapper
                0x0000000000023640                v2p
                0x00000000000236a0                v2p2m
                0x0000000000023700                enablePageDirectory
                0x0000000000023710                mapLimitedUsableMemory
                0x0000000000023840                mapLimitedPages
                0x0000000000023880                isReservedMemory
                0x00000000000238a0                pageMapStage1
                0x00000000000239c0                bspLinkFirst3Levels
                0x0000000000023a60                DeallocateVirtualMemoryCollection
                0x0000000000023ac0                DeallocateSharedMemoryTwoMb
                0x0000000000023b80                allocateVirtualMemoryBlock
                0x0000000000023c70                deallocateVirtualMemoryBlock
                0x0000000000023cc0                LinkThirdStageToCollection
                0x0000000000023d20                LinkThirdStageToCollection_Wrapper
                0x0000000000023d50                AllocateSharedMemoryTwoMb
                0x0000000000023e40                LinkThirdStageToCollection_physical
                0x0000000000023e80                LinkFourthStageToFrame
                0x0000000000023f30                LinkFourthStageToFrame_Wrapper
                0x0000000000023f50                LinkFourthStageToFrame_physical
                0x0000000000023ff0                LinkFourthStageToFramePhysical_Wrapper
                0x0000000000024020                mapReservedMemory
                0x0000000000024150                initVirtualMemoryService
                0x0000000000024370                mapKernelUsableMemory
                0x00000000000243c0                buildApCoresPageTables
 SharedMemory.o(.text)
 *fill*         0x000000000002459c        0x4 
 .text          0x00000000000245a0      0x4a6 /home/senior/Desktop/SandBoxGit/objects/SharedMemory.o
                0x00000000000245a0                initSharedMemoryService
                0x0000000000024610                AllocateConsecutivePages
                0x0000000000024700                SetBitsToValue
                0x00000000000247a0                AllocateSharedMemory
                0x0000000000024950                DeallocateSharedMemory
 BlockService.o(.text)
 *fill*         0x0000000000024a46        0xa 
 .text          0x0000000000024a50      0x328 /home/senior/Desktop/SandBoxGit/objects/BlockService.o
                0x0000000000024a50                init_BlockService
                0x0000000000024af0                get_file
                0x0000000000024b00                read_nBlocks
                0x0000000000024d30                read_blocks
 Service.o(.text)
 *fill*         0x0000000000024d78        0x8 
 .text          0x0000000000024d80       0x50 /home/senior/Desktop/SandBoxGit/objects/Service.o
                0x0000000000024d80                add_service
                0x0000000000024db0                service_init
 ServiceTransport.o(.text)
 .text          0x0000000000024dd0       0x60 /home/senior/Desktop/SandBoxGit/objects/ServiceTransport.o
                0x0000000000024dd0                init_service_transport
                0x0000000000024de0                register_service_to_kernel
                0x0000000000024e10                dispatch_kernel
 numbers.o(.text)
 .text          0x0000000000024e30       0xba /home/senior/Desktop/SandBoxGit/objects/numbers.o
                0x0000000000024e30                is_integer
                0x0000000000024e90                atoi
 rtl8139.o(.text)
 *fill*         0x0000000000024eea        0x6 
 .text          0x0000000000024ef0      0x47b /home/senior/Desktop/SandBoxGit/objects/rtl8139.o
                0x0000000000024ef0                read_mac_addr
                0x0000000000024f70                rtl8139_init
                0x00000000000251f0                receive_packet
                0x00000000000252b0                rtl8139_handler
                0x0000000000025350                get_mac_addr
 ethernet.o(.text)
 *fill*         0x000000000002536b        0x5 
 .text          0x0000000000025370      0x181 /home/senior/Desktop/SandBoxGit/objects/ethernet.o
                0x0000000000025370                ethernet_send_packet
                0x0000000000025420                ethernet_handle_packet
                0x00000000000254f0                ethernet_init
 Spinlock.o(.text)
 *fill*         0x00000000000254f1        0xf 
 .text          0x0000000000025500      0x185 /home/senior/Desktop/SandBoxGit/objects/Spinlock.o
                0x0000000000025500                spinlock_xchg_64
                0x0000000000025510                spinlock_xchg_32
                0x0000000000025520                spinlock_xchg_16
                0x0000000000025530                spinlock_init
                0x0000000000025550                spinlock_lock
                0x00000000000255f0                spinlock_unlock
                0x0000000000025640                spinlock_trylock
 KMalloc.o(.text)
 *fill*         0x0000000000025685        0xb 
 .text          0x0000000000025690      0x57e /home/senior/Desktop/SandBoxGit/objects/KMalloc.o
                0x0000000000025690                kmalloc
                0x0000000000025710                kvalloc
                0x00000000000257b0                malloc
                0x0000000000025870                valloc
                0x0000000000025950                memoryAllocatorDump
                0x0000000000025a40                memoryAllocatorTouch
                0x0000000000025a90                memoryAllocatorUntouch
                0x0000000000025b20                memoryAllocatorAdjust
                0x0000000000025bf0                memset_user_memory
 keyboard.o(.text)
 *fill*         0x0000000000025c0e        0x2 
 .text          0x0000000000025c10      0x177 /home/senior/Desktop/SandBoxGit/objects/keyboard.o
                0x0000000000025c10                keyboard_handler
                0x0000000000025d30                keyboard_init
 hamada_K.o(.text)
 *fill*         0x0000000000025d87        0x9 
 .text          0x0000000000025d90       0x54 /home/senior/Desktop/SandBoxGit/objects/hamada_K.o
                0x0000000000025d90                hamada1
                0x0000000000025dc0                hamada2
 hamada_U.o(.text)
 *fill*         0x0000000000025de4        0xc 
 .text          0x0000000000025df0       0x21 /home/senior/Desktop/SandBoxGit/objects/hamada_U.o
                0x0000000000025df0                hamada3
 service1_K.o(.text)
 service1_U.o(.text)
 *fill*         0x0000000000025e11        0xf 
 .text          0x0000000000025e20       0x21 /home/senior/Desktop/SandBoxGit/objects/service1_U.o
                0x0000000000025e20                method3
 Kernel.o(.text)
 *fill*         0x0000000000025e41        0xf 
 .text          0x0000000000025e50       0xa7 /home/senior/Desktop/SandBoxGit/objects/Kernel.o
                0x0000000000025e50                switchToUserMode
                0x0000000000025e80                switchToUserMode2
                0x0000000000026000                . = ALIGN (0x1000)
 *fill*         0x0000000000025ef7      0x109 
 .text          0x0000000000026000      0xa28 /home/senior/Desktop/SandBoxGit/objects/KernelMain.o
                0x0000000000026000                syscall
                0x0000000000026090                zero_handler
                0x00000000000260d0                fault_handler
                0x0000000000026110                generateServices
                0x0000000000026250                ap_kernel_main
                0x0000000000026370                bsp_kernel_main
                0x0000000000026a10                userModeDemo

.iplt           0x0000000000026a28        0x0
 .iplt          0x0000000000026a28        0x0 /home/senior/Desktop/SandBoxGit/objects/KernelWrapper.o

.rela.dyn       0x0000000000026a28        0x0
 .rela.got      0x0000000000026a28        0x0 /home/senior/Desktop/SandBoxGit/objects/KernelWrapper.o
 .rela.iplt     0x0000000000026a28        0x0 /home/senior/Desktop/SandBoxGit/objects/KernelWrapper.o
 .rela.text     0x0000000000026a28        0x0 /home/senior/Desktop/SandBoxGit/objects/KernelWrapper.o

.rodata         0x0000000000027000        0x0
 *(.rodata)
                0x0000000000027000                . = ALIGN (0x1000)

.rodata.str1.8  0x0000000000026a28      0x802
 .rodata.str1.8
                0x0000000000026a28       0x21 /home/senior/Desktop/SandBoxGit/objects/pit.o
 *fill*         0x0000000000026a49        0x7 
 .rodata.str1.8
                0x0000000000026a50       0xf6 /home/senior/Desktop/SandBoxGit/objects/PhysicalMemory.o
 *fill*         0x0000000000026b46        0x2 
 .rodata.str1.8
                0x0000000000026b48       0x82 /home/senior/Desktop/SandBoxGit/objects/pci_device.o
 *fill*         0x0000000000026bca        0x6 
 .rodata.str1.8
                0x0000000000026bd0       0x21 /home/senior/Desktop/SandBoxGit/objects/pci_service.o
 *fill*         0x0000000000026bf1        0x7 
 .rodata.str1.8
                0x0000000000026bf8       0x8d /home/senior/Desktop/SandBoxGit/objects/ATADisk.o
 *fill*         0x0000000000026c85        0x3 
 .rodata.str1.8
                0x0000000000026c88      0x130 /home/senior/Desktop/SandBoxGit/objects/ATAManager.o
 .rodata.str1.8
                0x0000000000026db8       0x2b /home/senior/Desktop/SandBoxGit/objects/InterruptManager.o
 *fill*         0x0000000000026de3        0x5 
 .rodata.str1.8
                0x0000000000026de8       0x24 /home/senior/Desktop/SandBoxGit/objects/MemoryPageMap.o
 *fill*         0x0000000000026e0c        0x4 
 .rodata.str1.8
                0x0000000000026e10       0xbc /home/senior/Desktop/SandBoxGit/objects/SharedMemory.o
 *fill*         0x0000000000026ecc        0x4 
 .rodata.str1.8
                0x0000000000026ed0       0x90 /home/senior/Desktop/SandBoxGit/objects/BlockService.o
 .rodata.str1.8
                0x0000000000026f60       0x7a /home/senior/Desktop/SandBoxGit/objects/rtl8139.o
 *fill*         0x0000000000026fda        0x6 
 .rodata.str1.8
                0x0000000000026fe0       0x4c /home/senior/Desktop/SandBoxGit/objects/ethernet.o
 *fill*         0x000000000002702c        0x4 
 .rodata.str1.8
                0x0000000000027030      0x187 /home/senior/Desktop/SandBoxGit/objects/KMalloc.o
 *fill*         0x00000000000271b7        0x1 
 .rodata.str1.8
                0x00000000000271b8       0x72 /home/senior/Desktop/SandBoxGit/objects/KernelMain.o

.eh_frame       0x0000000000027230     0x2b7c
 .eh_frame      0x0000000000027230       0xe8 /home/senior/Desktop/SandBoxGit/objects/pit.o
 .eh_frame      0x0000000000027318      0x2a8 /home/senior/Desktop/SandBoxGit/objects/PhysicalMemory.o
                                        0x2c0 (size before relaxing)
 .eh_frame      0x00000000000275c0      0x160 /home/senior/Desktop/SandBoxGit/objects/ClockUtils.o
                                        0x178 (size before relaxing)
 .eh_frame      0x0000000000027720      0x240 /home/senior/Desktop/SandBoxGit/objects/MemoryUtilities.o
                                        0x258 (size before relaxing)
 .eh_frame      0x0000000000027960       0x58 /home/senior/Desktop/SandBoxGit/objects/memcpy.o
                                         0x70 (size before relaxing)
 .eh_frame      0x00000000000279b8      0x168 /home/senior/Desktop/SandBoxGit/objects/pci_device.o
                                        0x180 (size before relaxing)
 .eh_frame      0x0000000000027b20      0x140 /home/senior/Desktop/SandBoxGit/objects/pci_service.o
                                        0x158 (size before relaxing)
 .eh_frame      0x0000000000027c60       0x58 /home/senior/Desktop/SandBoxGit/objects/memswap.o
                                         0x70 (size before relaxing)
 .eh_frame      0x0000000000027cb8       0x30 /home/senior/Desktop/SandBoxGit/objects/ipi.o
                                         0x48 (size before relaxing)
 .eh_frame      0x0000000000027ce8      0x1c0 /home/senior/Desktop/SandBoxGit/objects/Terminal.o
                                        0x1d8 (size before relaxing)
 .eh_frame      0x0000000000027ea8      0x128 /home/senior/Desktop/SandBoxGit/objects/Console.o
                                        0x140 (size before relaxing)
 .eh_frame      0x0000000000027fd0      0x178 /home/senior/Desktop/SandBoxGit/objects/ACPI.o
                                        0x190 (size before relaxing)
 .eh_frame      0x0000000000028148      0x180 /home/senior/Desktop/SandBoxGit/objects/APIC.o
                                        0x198 (size before relaxing)
 .eh_frame      0x00000000000282c8      0x2f8 /home/senior/Desktop/SandBoxGit/objects/ATADisk.o
                                        0x310 (size before relaxing)
 .eh_frame      0x00000000000285c0      0x328 /home/senior/Desktop/SandBoxGit/objects/ATAManager.o
                                        0x340 (size before relaxing)
 .eh_frame      0x00000000000288e8       0x40 /home/senior/Desktop/SandBoxGit/objects/TSSDescriptor.o
                                         0x58 (size before relaxing)
 .eh_frame      0x0000000000028928       0x20 /home/senior/Desktop/SandBoxGit/objects/GlobalDescriptorTableEntry.o
                                         0x38 (size before relaxing)
 .eh_frame      0x0000000000028948       0xc8 /home/senior/Desktop/SandBoxGit/objects/GlobalDescriptorTable.o
                                         0xe0 (size before relaxing)
 .eh_frame      0x0000000000028a10       0x60 /home/senior/Desktop/SandBoxGit/objects/InterruptManager.o
                                         0x78 (size before relaxing)
 .eh_frame      0x0000000000028a70       0xe8 /home/senior/Desktop/SandBoxGit/objects/InterruptDescriptorTable.o
                                        0x100 (size before relaxing)
 .eh_frame      0x0000000000028b58       0x30 /home/senior/Desktop/SandBoxGit/objects/isr_stub.o
                                         0x48 (size before relaxing)
 .eh_frame      0x0000000000028b88       0xf0 /home/senior/Desktop/SandBoxGit/objects/APICManager.o
                                        0x108 (size before relaxing)
 .eh_frame      0x0000000000028c78       0x78 /home/senior/Desktop/SandBoxGit/objects/Ports.o
                                         0x90 (size before relaxing)
 .eh_frame      0x0000000000028cf0       0x50 /home/senior/Desktop/SandBoxGit/objects/CoreUtils.o
                                         0x68 (size before relaxing)
 .eh_frame      0x0000000000028d40       0x30 /home/senior/Desktop/SandBoxGit/objects/NetUtils.o
                                         0x48 (size before relaxing)
 .eh_frame      0x0000000000028d70       0xa0 /home/senior/Desktop/SandBoxGit/objects/MMIOUtils.o
                                         0xb8 (size before relaxing)
 .eh_frame      0x0000000000028e10       0x70 /home/senior/Desktop/SandBoxGit/objects/stdio.o
                                         0x88 (size before relaxing)
 .eh_frame      0x0000000000028e80       0xf0 /home/senior/Desktop/SandBoxGit/objects/printk.o
                                        0x108 (size before relaxing)
 .eh_frame      0x0000000000028f70       0x28 /home/senior/Desktop/SandBoxGit/objects/service1_K.o
                                         0x40 (size before relaxing)
 .eh_frame      0x0000000000028f98       0x18 /home/senior/Desktop/SandBoxGit/objects/checksum.o
                                         0x30 (size before relaxing)
 .eh_frame      0x0000000000028fb0      0x3e8 /home/senior/Desktop/SandBoxGit/objects/MemoryPageMap.o
                                        0x400 (size before relaxing)
 .eh_frame      0x0000000000029398      0x1b8 /home/senior/Desktop/SandBoxGit/objects/SharedMemory.o
                                        0x1d0 (size before relaxing)
 .eh_frame      0x0000000000029550       0xc0 /home/senior/Desktop/SandBoxGit/objects/BlockService.o
                                         0xd8 (size before relaxing)
 .eh_frame      0x0000000000029610       0x28 /home/senior/Desktop/SandBoxGit/objects/Service.o
                                         0x40 (size before relaxing)
 .eh_frame      0x0000000000029638       0x40 /home/senior/Desktop/SandBoxGit/objects/ServiceTransport.o
                                         0x58 (size before relaxing)
 .eh_frame      0x0000000000029678       0x38 /home/senior/Desktop/SandBoxGit/objects/numbers.o
                                         0x50 (size before relaxing)
 .eh_frame      0x00000000000296b0       0xf8 /home/senior/Desktop/SandBoxGit/objects/rtl8139.o
                                        0x110 (size before relaxing)
 .eh_frame      0x00000000000297a8       0xa8 /home/senior/Desktop/SandBoxGit/objects/ethernet.o
                                         0xc0 (size before relaxing)
 .eh_frame      0x0000000000029850      0x100 /home/senior/Desktop/SandBoxGit/objects/Spinlock.o
                                        0x118 (size before relaxing)
 .eh_frame      0x0000000000029950      0x230 /home/senior/Desktop/SandBoxGit/objects/KMalloc.o
                                        0x248 (size before relaxing)
 .eh_frame      0x0000000000029b80       0x58 /home/senior/Desktop/SandBoxGit/objects/keyboard.o
                                         0x70 (size before relaxing)
 .eh_frame      0x0000000000029bd8       0x28 /home/senior/Desktop/SandBoxGit/objects/hamada_K.o
                                         0x40 (size before relaxing)
 .eh_frame      0x0000000000029c00       0x18 /home/senior/Desktop/SandBoxGit/objects/hamada_U.o
                                         0x30 (size before relaxing)
 .eh_frame      0x0000000000029c18       0x18 /home/senior/Desktop/SandBoxGit/objects/service1_U.o
                                         0x30 (size before relaxing)
 .eh_frame      0x0000000000029c30       0x38 /home/senior/Desktop/SandBoxGit/objects/Kernel.o
                                         0x50 (size before relaxing)
 .eh_frame      0x0000000000029c68      0x144 /home/senior/Desktop/SandBoxGit/objects/KernelMain.o
                                        0x160 (size before relaxing)

.rodata.str1.1  0x0000000000029dac      0x589
 .rodata.str1.1
                0x0000000000029dac       0x82 /home/senior/Desktop/SandBoxGit/objects/PhysicalMemory.o
 .rodata.str1.1
                0x0000000000029e2e       0x47 /home/senior/Desktop/SandBoxGit/objects/ACPI.o
 .rodata.str1.1
                0x0000000000029e75       0x1b /home/senior/Desktop/SandBoxGit/objects/APIC.o
 .rodata.str1.1
                0x0000000000029e90       0xab /home/senior/Desktop/SandBoxGit/objects/ATADisk.o
 .rodata.str1.1
                0x0000000000029f3b      0x16b /home/senior/Desktop/SandBoxGit/objects/ATAManager.o
 .rodata.str1.1
                0x000000000002a0a6       0x12 /home/senior/Desktop/SandBoxGit/objects/GlobalDescriptorTable.o
 .rodata.str1.1
                0x000000000002a0b8       0x10 /home/senior/Desktop/SandBoxGit/objects/isr_stub.o
 .rodata.str1.1
                0x000000000002a0c8       0x25 /home/senior/Desktop/SandBoxGit/objects/APICManager.o
 .rodata.str1.1
                0x000000000002a0ed       0x75 /home/senior/Desktop/SandBoxGit/objects/SharedMemory.o
 .rodata.str1.1
                0x000000000002a162       0x52 /home/senior/Desktop/SandBoxGit/objects/BlockService.o
 .rodata.str1.1
                0x000000000002a1b4       0x33 /home/senior/Desktop/SandBoxGit/objects/rtl8139.o
 .rodata.str1.1
                0x000000000002a1e7       0x1b /home/senior/Desktop/SandBoxGit/objects/ethernet.o
 .rodata.str1.1
                0x000000000002a202       0x87 /home/senior/Desktop/SandBoxGit/objects/KMalloc.o
 .rodata.str1.1
                0x000000000002a289       0x26 /home/senior/Desktop/SandBoxGit/objects/keyboard.o
 .rodata.str1.1
                0x000000000002a2af        0x3 /home/senior/Desktop/SandBoxGit/objects/hamada_K.o
 .rodata.str1.1
                0x000000000002a2b2        0x3 /home/senior/Desktop/SandBoxGit/objects/hamada_U.o
 .rodata.str1.1
                0x000000000002a2b2        0x3 /home/senior/Desktop/SandBoxGit/objects/service1_U.o
 .rodata.str1.1
                0x000000000002a2b2       0x2a /home/senior/Desktop/SandBoxGit/objects/Kernel.o
 .rodata.str1.1
                0x000000000002a2dc       0x59 /home/senior/Desktop/SandBoxGit/objects/KernelMain.o
                                         0x61 (size before relaxing)

.rodata.cst8    0x000000000002a338       0x10
 .rodata.cst8   0x000000000002a338       0x10 /home/senior/Desktop/SandBoxGit/objects/KMalloc.o

.data           0x000000000002b000     0x1000
 *(.data)
 .data          0x000000000002b000        0x0 /home/senior/Desktop/SandBoxGit/objects/pit.o
 .data          0x000000000002b000       0xf0 /home/senior/Desktop/SandBoxGit/objects/PhysicalMemory.o
 .data          0x000000000002b0f0        0x0 /home/senior/Desktop/SandBoxGit/objects/ClockUtils.o
 .data          0x000000000002b0f0        0x0 /home/senior/Desktop/SandBoxGit/objects/MemoryUtilities.o
 .data          0x000000000002b0f0        0x0 /home/senior/Desktop/SandBoxGit/objects/memcpy.o
 .data          0x000000000002b0f0        0x0 /home/senior/Desktop/SandBoxGit/objects/pci_device.o
 .data          0x000000000002b0f0        0x0 /home/senior/Desktop/SandBoxGit/objects/pci_service.o
 .data          0x000000000002b0f0        0x0 /home/senior/Desktop/SandBoxGit/objects/memswap.o
 .data          0x000000000002b0f0        0x0 /home/senior/Desktop/SandBoxGit/objects/ipi.o
 .data          0x000000000002b0f0        0x0 /home/senior/Desktop/SandBoxGit/objects/Terminal.o
 .data          0x000000000002b0f0        0x0 /home/senior/Desktop/SandBoxGit/objects/Console.o
 .data          0x000000000002b0f0        0x0 /home/senior/Desktop/SandBoxGit/objects/ACPI.o
 .data          0x000000000002b0f0        0x0 /home/senior/Desktop/SandBoxGit/objects/APIC.o
 .data          0x000000000002b0f0        0x0 /home/senior/Desktop/SandBoxGit/objects/ATADisk.o
 .data          0x000000000002b0f0        0x0 /home/senior/Desktop/SandBoxGit/objects/ATAManager.o
 .data          0x000000000002b0f0        0x0 /home/senior/Desktop/SandBoxGit/objects/TSSDescriptor.o
 .data          0x000000000002b0f0        0x0 /home/senior/Desktop/SandBoxGit/objects/GlobalDescriptorTableEntry.o
 .data          0x000000000002b0f0        0x0 /home/senior/Desktop/SandBoxGit/objects/GlobalDescriptorTable.o
 .data          0x000000000002b0f0        0x0 /home/senior/Desktop/SandBoxGit/objects/InterruptManager.o
 .data          0x000000000002b0f0        0x0 /home/senior/Desktop/SandBoxGit/objects/InterruptDescriptorTable.o
 .data          0x000000000002b0f0        0x0 /home/senior/Desktop/SandBoxGit/objects/isr_stub.o
 .data          0x000000000002b0f0        0x0 /home/senior/Desktop/SandBoxGit/objects/APICManager.o
 .data          0x000000000002b0f0        0x0 /home/senior/Desktop/SandBoxGit/objects/Ports.o
 .data          0x000000000002b0f0        0x0 /home/senior/Desktop/SandBoxGit/objects/CoreUtils.o
 .data          0x000000000002b0f0        0x0 /home/senior/Desktop/SandBoxGit/objects/NetUtils.o
 .data          0x000000000002b0f0        0x0 /home/senior/Desktop/SandBoxGit/objects/MMIOUtils.o
 .data          0x000000000002b0f0        0x0 /home/senior/Desktop/SandBoxGit/objects/stdio.o
 .data          0x000000000002b0f0        0x0 /home/senior/Desktop/SandBoxGit/objects/printk.o
 .data          0x000000000002b0f0        0x0 /home/senior/Desktop/SandBoxGit/objects/service1_K.o
 .data          0x000000000002b0f0        0x0 /home/senior/Desktop/SandBoxGit/objects/checksum.o
 .data          0x000000000002b0f0        0x0 /home/senior/Desktop/SandBoxGit/objects/MemoryPageMap.o
 .data          0x000000000002b0f0        0x0 /home/senior/Desktop/SandBoxGit/objects/SharedMemory.o
 .data          0x000000000002b0f0        0x0 /home/senior/Desktop/SandBoxGit/objects/BlockService.o
 .data          0x000000000002b0f0        0x0 /home/senior/Desktop/SandBoxGit/objects/Service.o
 .data          0x000000000002b0f0        0x0 /home/senior/Desktop/SandBoxGit/objects/ServiceTransport.o
 .data          0x000000000002b0f0        0x0 /home/senior/Desktop/SandBoxGit/objects/numbers.o
 .data          0x000000000002b0f0        0x0 /home/senior/Desktop/SandBoxGit/objects/rtl8139.o
 .data          0x000000000002b0f0        0x0 /home/senior/Desktop/SandBoxGit/objects/ethernet.o
 .data          0x000000000002b0f0        0x0 /home/senior/Desktop/SandBoxGit/objects/Spinlock.o
 .data          0x000000000002b0f0        0x0 /home/senior/Desktop/SandBoxGit/objects/KMalloc.o
 *fill*         0x000000000002b0f0       0x10 
 .data          0x000000000002b100       0x80 /home/senior/Desktop/SandBoxGit/objects/keyboard.o
                0x000000000002b100                kbdus
 .data          0x000000000002b180        0x0 /home/senior/Desktop/SandBoxGit/objects/hamada_K.o
 .data          0x000000000002b180        0x0 /home/senior/Desktop/SandBoxGit/objects/hamada_U.o
 .data          0x000000000002b180        0x0 /home/senior/Desktop/SandBoxGit/objects/service1_U.o
 .data          0x000000000002b180        0x0 /home/senior/Desktop/SandBoxGit/objects/Kernel.o
 .data          0x000000000002b180        0x0 /home/senior/Desktop/SandBoxGit/objects/KernelMain.o
                0x000000000002c000                . = ALIGN (0x1000)
 *fill*         0x000000000002b180      0xe80 

.got            0x000000000002c000        0x0
 .got           0x000000000002c000        0x0 /home/senior/Desktop/SandBoxGit/objects/KernelWrapper.o

.got.plt        0x000000000002c000        0x0
 .got.plt       0x000000000002c000        0x0 /home/senior/Desktop/SandBoxGit/objects/KernelWrapper.o

.igot.plt       0x000000000002c000        0x0
 .igot.plt      0x000000000002c000        0x0 /home/senior/Desktop/SandBoxGit/objects/KernelWrapper.o

.bss            0x000000000002c000    0x1c000
 *(COMMON)
 COMMON         0x000000000002c000       0x2c /home/senior/Desktop/SandBoxGit/objects/rtl8139.o
                0x000000000002c000                rtl8139_device
                0x000000000002c028                current_packet_ptr
 *fill*         0x000000000002c02c       0x14 
 COMMON         0x000000000002c040    0x18a70 /home/senior/Desktop/SandBoxGit/objects/KernelMain.o
                0x000000000002c040                virtualMemoryService
                0x000000000002c860                sharedMemoryService
                0x000000000002d080                ipiService
                0x000000000002d8a0                physicalMemoryService
                0x000000000002e0b0                interruptDescriptorTablePointer
                0x000000000002e0c0                apicManagerService
                0x000000000002e8d0                globalDescriptorTablePointer
                0x000000000002e8d8                hamadaStruct_object
                0x000000000002e900                pciService
                0x000000000002f120                consoleService
                0x000000000002f940                kernel
                0x0000000000043260                interruptService
                0x0000000000043a70                service1_object
                0x0000000000043a80                service1Service
                0x00000000000442a0                hamadaStructService
 *(.bss)
 .bss           0x0000000000044ab0     0x2000 /home/senior/Desktop/SandBoxGit/objects/KernelWrapper.o
 .bss           0x0000000000046ab0        0x0 /home/senior/Desktop/SandBoxGit/objects/pit.o
 .bss           0x0000000000046ab0        0x0 /home/senior/Desktop/SandBoxGit/objects/PhysicalMemory.o
 .bss           0x0000000000046ab0        0x0 /home/senior/Desktop/SandBoxGit/objects/ClockUtils.o
 .bss           0x0000000000046ab0        0x0 /home/senior/Desktop/SandBoxGit/objects/MemoryUtilities.o
 *fill*         0x0000000000046ab0       0x10 
 .bss           0x0000000000046ac0      0x800 /home/senior/Desktop/SandBoxGit/objects/memcpy.o
 .bss           0x00000000000472c0        0x0 /home/senior/Desktop/SandBoxGit/objects/pci_device.o
 .bss           0x00000000000472c0        0x0 /home/senior/Desktop/SandBoxGit/objects/pci_service.o
 .bss           0x00000000000472c0      0x800 /home/senior/Desktop/SandBoxGit/objects/memswap.o
 .bss           0x0000000000047ac0        0x0 /home/senior/Desktop/SandBoxGit/objects/ipi.o
 .bss           0x0000000000047ac0        0x0 /home/senior/Desktop/SandBoxGit/objects/Terminal.o
 .bss           0x0000000000047ac0        0x0 /home/senior/Desktop/SandBoxGit/objects/Console.o
 .bss           0x0000000000047ac0        0x0 /home/senior/Desktop/SandBoxGit/objects/ACPI.o
 .bss           0x0000000000047ac0        0x0 /home/senior/Desktop/SandBoxGit/objects/APIC.o
 .bss           0x0000000000047ac0        0x0 /home/senior/Desktop/SandBoxGit/objects/ATADisk.o
 .bss           0x0000000000047ac0        0x0 /home/senior/Desktop/SandBoxGit/objects/ATAManager.o
 .bss           0x0000000000047ac0        0x0 /home/senior/Desktop/SandBoxGit/objects/TSSDescriptor.o
 .bss           0x0000000000047ac0        0x0 /home/senior/Desktop/SandBoxGit/objects/GlobalDescriptorTableEntry.o
 .bss           0x0000000000047ac0        0x0 /home/senior/Desktop/SandBoxGit/objects/GlobalDescriptorTable.o
 .bss           0x0000000000047ac0        0x0 /home/senior/Desktop/SandBoxGit/objects/InterruptManager.o
 .bss           0x0000000000047ac0        0x0 /home/senior/Desktop/SandBoxGit/objects/InterruptDescriptorTable.o
 .bss           0x0000000000047ac0        0x0 /home/senior/Desktop/SandBoxGit/objects/isr_stub.o
 .bss           0x0000000000047ac0        0x0 /home/senior/Desktop/SandBoxGit/objects/APICManager.o
 .bss           0x0000000000047ac0        0x0 /home/senior/Desktop/SandBoxGit/objects/Ports.o
 .bss           0x0000000000047ac0        0x0 /home/senior/Desktop/SandBoxGit/objects/CoreUtils.o
 .bss           0x0000000000047ac0        0x0 /home/senior/Desktop/SandBoxGit/objects/NetUtils.o
 .bss           0x0000000000047ac0        0x0 /home/senior/Desktop/SandBoxGit/objects/MMIOUtils.o
 .bss           0x0000000000047ac0        0x0 /home/senior/Desktop/SandBoxGit/objects/stdio.o
 .bss           0x0000000000047ac0        0x0 /home/senior/Desktop/SandBoxGit/objects/printk.o
 .bss           0x0000000000047ac0        0x0 /home/senior/Desktop/SandBoxGit/objects/service1_K.o
 .bss           0x0000000000047ac0        0x0 /home/senior/Desktop/SandBoxGit/objects/checksum.o
 .bss           0x0000000000047ac0        0x0 /home/senior/Desktop/SandBoxGit/objects/MemoryPageMap.o
 .bss           0x0000000000047ac0        0x0 /home/senior/Desktop/SandBoxGit/objects/SharedMemory.o
 .bss           0x0000000000047ac0        0x0 /home/senior/Desktop/SandBoxGit/objects/BlockService.o
 .bss           0x0000000000047ac0        0x0 /home/senior/Desktop/SandBoxGit/objects/Service.o
 .bss           0x0000000000047ac0        0x0 /home/senior/Desktop/SandBoxGit/objects/ServiceTransport.o
 .bss           0x0000000000047ac0        0x0 /home/senior/Desktop/SandBoxGit/objects/numbers.o
 .bss           0x0000000000047ac0        0x0 /home/senior/Desktop/SandBoxGit/objects/rtl8139.o
 .bss           0x0000000000047ac0        0x0 /home/senior/Desktop/SandBoxGit/objects/ethernet.o
 .bss           0x0000000000047ac0        0x0 /home/senior/Desktop/SandBoxGit/objects/Spinlock.o
 .bss           0x0000000000047ac0        0x0 /home/senior/Desktop/SandBoxGit/objects/KMalloc.o
 .bss           0x0000000000047ac0        0x0 /home/senior/Desktop/SandBoxGit/objects/keyboard.o
 .bss           0x0000000000047ac0        0x0 /home/senior/Desktop/SandBoxGit/objects/hamada_K.o
 .bss           0x0000000000047ac0        0x0 /home/senior/Desktop/SandBoxGit/objects/hamada_U.o
 .bss           0x0000000000047ac0        0x0 /home/senior/Desktop/SandBoxGit/objects/service1_U.o
 .bss           0x0000000000047ac0        0x0 /home/senior/Desktop/SandBoxGit/objects/Kernel.o
 .bss           0x0000000000047ac0        0x0 /home/senior/Desktop/SandBoxGit/objects/KernelMain.o
 *(.bootstrap_stack)
                0x0000000000048000                . = ALIGN (0x1000)
 *fill*         0x0000000000047ac0      0x540 
                0x0000000000048000                end = .
LOAD /home/senior/Desktop/SandBoxGit/objects/KernelMain.o
LOAD /home/senior/Desktop/SandBoxGit/objects/KernelWrapper.o
LOAD /home/senior/Desktop/SandBoxGit/objects/gdt.o
LOAD /home/senior/Desktop/SandBoxGit/objects/idt.o
LOAD /home/senior/Desktop/SandBoxGit/objects/isr.o
LOAD /home/senior/Desktop/SandBoxGit/objects/pit.o
LOAD /home/senior/Desktop/SandBoxGit/objects/PhysicalMemory.o
LOAD /home/senior/Desktop/SandBoxGit/objects/MemoryUtilities_asm.o
LOAD /home/senior/Desktop/SandBoxGit/objects/ClockUtils.o
LOAD /home/senior/Desktop/SandBoxGit/objects/MemoryUtilities.o
LOAD /home/senior/Desktop/SandBoxGit/objects/memcpy_asm.o
LOAD /home/senior/Desktop/SandBoxGit/objects/memcpy.o
LOAD /home/senior/Desktop/SandBoxGit/objects/memswap_asm.o
LOAD /home/senior/Desktop/SandBoxGit/objects/checksum_asm.o
LOAD /home/senior/Desktop/SandBoxGit/objects/pci_device.o
LOAD /home/senior/Desktop/SandBoxGit/objects/pci_service.o
LOAD /home/senior/Desktop/SandBoxGit/objects/memswap.o
LOAD /home/senior/Desktop/SandBoxGit/objects/ipi.o
LOAD /home/senior/Desktop/SandBoxGit/objects/Terminal.o
LOAD /home/senior/Desktop/SandBoxGit/objects/Console.o
LOAD /home/senior/Desktop/SandBoxGit/objects/ACPI.o
LOAD /home/senior/Desktop/SandBoxGit/objects/APIC.o
LOAD /home/senior/Desktop/SandBoxGit/objects/ATADisk.o
LOAD /home/senior/Desktop/SandBoxGit/objects/ATAManager.o
LOAD /home/senior/Desktop/SandBoxGit/objects/TSSDescriptor.o
LOAD /home/senior/Desktop/SandBoxGit/objects/GlobalDescriptorTableEntry.o
LOAD /home/senior/Desktop/SandBoxGit/objects/GlobalDescriptorTable.o
LOAD /home/senior/Desktop/SandBoxGit/objects/InterruptManager.o
LOAD /home/senior/Desktop/SandBoxGit/objects/InterruptDescriptorTable.o
LOAD /home/senior/Desktop/SandBoxGit/objects/isr_stub.o
LOAD /home/senior/Desktop/SandBoxGit/objects/APICManager.o
LOAD /home/senior/Desktop/SandBoxGit/objects/Ports.o
LOAD /home/senior/Desktop/SandBoxGit/objects/CoreUtils.o
LOAD /home/senior/Desktop/SandBoxGit/objects/NetUtils.o
LOAD /home/senior/Desktop/SandBoxGit/objects/MMIOUtils.o
LOAD /home/senior/Desktop/SandBoxGit/objects/stdio.o
LOAD /home/senior/Desktop/SandBoxGit/objects/printk.o
LOAD /home/senior/Desktop/SandBoxGit/objects/service1_K.o
LOAD /home/senior/Desktop/SandBoxGit/objects/checksum.o
LOAD /home/senior/Desktop/SandBoxGit/objects/MemoryPageMap.o
LOAD /home/senior/Desktop/SandBoxGit/objects/SharedMemory.o
LOAD /home/senior/Desktop/SandBoxGit/objects/BlockService.o
LOAD /home/senior/Desktop/SandBoxGit/objects/Service.o
LOAD /home/senior/Desktop/SandBoxGit/objects/ServiceTransport.o
LOAD /home/senior/Desktop/SandBoxGit/objects/numbers.o
LOAD /home/senior/Desktop/SandBoxGit/objects/rtl8139.o
LOAD /home/senior/Desktop/SandBoxGit/objects/ethernet.o
LOAD /home/senior/Desktop/SandBoxGit/objects/Spinlock.o
LOAD /home/senior/Desktop/SandBoxGit/objects/KMalloc.o
LOAD /home/senior/Desktop/SandBoxGit/objects/keyboard.o
LOAD /home/senior/Desktop/SandBoxGit/objects/hamada_K.o
LOAD /home/senior/Desktop/SandBoxGit/objects/hamada_U.o
LOAD /home/senior/Desktop/SandBoxGit/objects/service1_U.o
LOAD /home/senior/Desktop/SandBoxGit/objects/Kernel.o
OUTPUT(/dev/null elf64-x86-64)

.stab           0x0000000000000000    0x31de8
 .stab          0x0000000000000000       0xc0 /home/senior/Desktop/SandBoxGit/objects/KernelWrapper.o
 .stab          0x00000000000000c0       0xb4 /home/senior/Desktop/SandBoxGit/objects/gdt.o
                                         0xc0 (size before relaxing)
 .stab          0x0000000000000174      0xc30 /home/senior/Desktop/SandBoxGit/objects/idt.o
                                        0xc3c (size before relaxing)
 .stab          0x0000000000000da4       0x84 /home/senior/Desktop/SandBoxGit/objects/isr.o
                                         0x90 (size before relaxing)
 .stab          0x0000000000000e28     0x21e4 /home/senior/Desktop/SandBoxGit/objects/MemoryUtilities_asm.o
                                       0x21f0 (size before relaxing)
 .stab          0x000000000000300c    0x1071c /home/senior/Desktop/SandBoxGit/objects/memcpy_asm.o
                                      0x10728 (size before relaxing)
 .stab          0x0000000000013728    0x1e318 /home/senior/Desktop/SandBoxGit/objects/memswap_asm.o
                                      0x1e324 (size before relaxing)
 .stab          0x0000000000031a40      0x3a8 /home/senior/Desktop/SandBoxGit/objects/checksum_asm.o
                                        0x3b4 (size before relaxing)

.stabstr        0x0000000000000000       0x63
 .stabstr       0x0000000000000000       0x63 /home/senior/Desktop/SandBoxGit/objects/KernelWrapper.o

.debug_info     0x0000000000000000    0x3da55
 .debug_info    0x0000000000000000     0x1fdd /home/senior/Desktop/SandBoxGit/objects/pit.o
 .debug_info    0x0000000000001fdd     0x2ef0 /home/senior/Desktop/SandBoxGit/objects/PhysicalMemory.o
 .debug_info    0x0000000000004ecd      0xb54 /home/senior/Desktop/SandBoxGit/objects/ClockUtils.o
 .debug_info    0x0000000000005a21      0x721 /home/senior/Desktop/SandBoxGit/objects/MemoryUtilities.o
 .debug_info    0x0000000000006142      0x1b9 /home/senior/Desktop/SandBoxGit/objects/memcpy.o
 .debug_info    0x00000000000062fb      0x783 /home/senior/Desktop/SandBoxGit/objects/pci_device.o
 .debug_info    0x0000000000006a7e     0x2352 /home/senior/Desktop/SandBoxGit/objects/pci_service.o
 .debug_info    0x0000000000008dd0      0x1c1 /home/senior/Desktop/SandBoxGit/objects/memswap.o
 .debug_info    0x0000000000008f91     0x1e6b /home/senior/Desktop/SandBoxGit/objects/ipi.o
 .debug_info    0x000000000000adfc      0xc76 /home/senior/Desktop/SandBoxGit/objects/Terminal.o
 .debug_info    0x000000000000ba72     0x237e /home/senior/Desktop/SandBoxGit/objects/Console.o
 .debug_info    0x000000000000ddf0     0x2536 /home/senior/Desktop/SandBoxGit/objects/ACPI.o
 .debug_info    0x0000000000010326     0x2715 /home/senior/Desktop/SandBoxGit/objects/APIC.o
 .debug_info    0x0000000000012a3b     0x38f2 /home/senior/Desktop/SandBoxGit/objects/ATADisk.o
 .debug_info    0x000000000001632d     0x3112 /home/senior/Desktop/SandBoxGit/objects/ATAManager.o
 .debug_info    0x000000000001943f      0x2fe /home/senior/Desktop/SandBoxGit/objects/TSSDescriptor.o
 .debug_info    0x000000000001973d      0x223 /home/senior/Desktop/SandBoxGit/objects/GlobalDescriptorTableEntry.o
 .debug_info    0x0000000000019960     0x204f /home/senior/Desktop/SandBoxGit/objects/GlobalDescriptorTable.o
 .debug_info    0x000000000001b9af     0x1fc6 /home/senior/Desktop/SandBoxGit/objects/InterruptManager.o
 .debug_info    0x000000000001d975     0x6751 /home/senior/Desktop/SandBoxGit/objects/InterruptDescriptorTable.o
 .debug_info    0x00000000000240c6     0x1ebb /home/senior/Desktop/SandBoxGit/objects/isr_stub.o
 .debug_info    0x0000000000025f81     0x21de /home/senior/Desktop/SandBoxGit/objects/APICManager.o
 .debug_info    0x000000000002815f      0x21b /home/senior/Desktop/SandBoxGit/objects/Ports.o
 .debug_info    0x000000000002837a      0x239 /home/senior/Desktop/SandBoxGit/objects/CoreUtils.o
 .debug_info    0x00000000000285b3      0x14e /home/senior/Desktop/SandBoxGit/objects/NetUtils.o
 .debug_info    0x0000000000028701      0x257 /home/senior/Desktop/SandBoxGit/objects/MMIOUtils.o
 .debug_info    0x0000000000028958      0x428 /home/senior/Desktop/SandBoxGit/objects/stdio.o
 .debug_info    0x0000000000028d80     0x2215 /home/senior/Desktop/SandBoxGit/objects/printk.o
 .debug_info    0x000000000002af95      0x13b /home/senior/Desktop/SandBoxGit/objects/service1_K.o
 .debug_info    0x000000000002b0d0      0x110 /home/senior/Desktop/SandBoxGit/objects/checksum.o
 .debug_info    0x000000000002b1e0     0x35d1 /home/senior/Desktop/SandBoxGit/objects/MemoryPageMap.o
 .debug_info    0x000000000002e7b1     0x2525 /home/senior/Desktop/SandBoxGit/objects/SharedMemory.o
 .debug_info    0x0000000000030cd6     0x2179 /home/senior/Desktop/SandBoxGit/objects/BlockService.o
 .debug_info    0x0000000000032e4f      0x1e8 /home/senior/Desktop/SandBoxGit/objects/Service.o
 .debug_info    0x0000000000033037      0x2bd /home/senior/Desktop/SandBoxGit/objects/ServiceTransport.o
 .debug_info    0x00000000000332f4      0x19d /home/senior/Desktop/SandBoxGit/objects/numbers.o
 .debug_info    0x0000000000033491     0x23e8 /home/senior/Desktop/SandBoxGit/objects/rtl8139.o
 .debug_info    0x0000000000035879     0x2089 /home/senior/Desktop/SandBoxGit/objects/ethernet.o
 .debug_info    0x0000000000037902      0x366 /home/senior/Desktop/SandBoxGit/objects/Spinlock.o
 .debug_info    0x0000000000037c68      0x91a /home/senior/Desktop/SandBoxGit/objects/KMalloc.o
 .debug_info    0x0000000000038582     0x1fdd /home/senior/Desktop/SandBoxGit/objects/keyboard.o
 .debug_info    0x000000000003a55f      0x1bb /home/senior/Desktop/SandBoxGit/objects/hamada_K.o
 .debug_info    0x000000000003a71a      0x145 /home/senior/Desktop/SandBoxGit/objects/hamada_U.o
 .debug_info    0x000000000003a85f      0x133 /home/senior/Desktop/SandBoxGit/objects/service1_U.o
 .debug_info    0x000000000003a992       0xe5 /home/senior/Desktop/SandBoxGit/objects/Kernel.o
 .debug_info    0x000000000003aa77     0x2fde /home/senior/Desktop/SandBoxGit/objects/KernelMain.o

.debug_abbrev   0x0000000000000000     0x6358
 .debug_abbrev  0x0000000000000000      0x2d9 /home/senior/Desktop/SandBoxGit/objects/pit.o
 .debug_abbrev  0x00000000000002d9      0x522 /home/senior/Desktop/SandBoxGit/objects/PhysicalMemory.o
 .debug_abbrev  0x00000000000007fb      0x1b9 /home/senior/Desktop/SandBoxGit/objects/ClockUtils.o
 .debug_abbrev  0x00000000000009b4      0x13e /home/senior/Desktop/SandBoxGit/objects/MemoryUtilities.o
 .debug_abbrev  0x0000000000000af2      0x10c /home/senior/Desktop/SandBoxGit/objects/memcpy.o
 .debug_abbrev  0x0000000000000bfe      0x198 /home/senior/Desktop/SandBoxGit/objects/pci_device.o
 .debug_abbrev  0x0000000000000d96      0x2eb /home/senior/Desktop/SandBoxGit/objects/pci_service.o
 .debug_abbrev  0x0000000000001081      0x10c /home/senior/Desktop/SandBoxGit/objects/memswap.o
 .debug_abbrev  0x000000000000118d      0x263 /home/senior/Desktop/SandBoxGit/objects/ipi.o
 .debug_abbrev  0x00000000000013f0      0x22a /home/senior/Desktop/SandBoxGit/objects/Terminal.o
 .debug_abbrev  0x000000000000161a      0x28b /home/senior/Desktop/SandBoxGit/objects/Console.o
 .debug_abbrev  0x00000000000018a5      0x3b8 /home/senior/Desktop/SandBoxGit/objects/ACPI.o
 .debug_abbrev  0x0000000000001c5d      0x3b8 /home/senior/Desktop/SandBoxGit/objects/APIC.o
 .debug_abbrev  0x0000000000002015      0x441 /home/senior/Desktop/SandBoxGit/objects/ATADisk.o
 .debug_abbrev  0x0000000000002456      0x51d /home/senior/Desktop/SandBoxGit/objects/ATAManager.o
 .debug_abbrev  0x0000000000002973      0x14e /home/senior/Desktop/SandBoxGit/objects/TSSDescriptor.o
 .debug_abbrev  0x0000000000002ac1       0xab /home/senior/Desktop/SandBoxGit/objects/GlobalDescriptorTableEntry.o
 .debug_abbrev  0x0000000000002b6c      0x269 /home/senior/Desktop/SandBoxGit/objects/GlobalDescriptorTable.o
 .debug_abbrev  0x0000000000002dd5      0x2c0 /home/senior/Desktop/SandBoxGit/objects/InterruptManager.o
 .debug_abbrev  0x0000000000003095      0x32e /home/senior/Desktop/SandBoxGit/objects/InterruptDescriptorTable.o
 .debug_abbrev  0x00000000000033c3      0x279 /home/senior/Desktop/SandBoxGit/objects/isr_stub.o
 .debug_abbrev  0x000000000000363c      0x2d5 /home/senior/Desktop/SandBoxGit/objects/APICManager.o
 .debug_abbrev  0x0000000000003911       0xb2 /home/senior/Desktop/SandBoxGit/objects/Ports.o
 .debug_abbrev  0x00000000000039c3      0x121 /home/senior/Desktop/SandBoxGit/objects/CoreUtils.o
 .debug_abbrev  0x0000000000003ae4       0xb9 /home/senior/Desktop/SandBoxGit/objects/NetUtils.o
 .debug_abbrev  0x0000000000003b9d       0xa0 /home/senior/Desktop/SandBoxGit/objects/MMIOUtils.o
 .debug_abbrev  0x0000000000003c3d      0x16c /home/senior/Desktop/SandBoxGit/objects/stdio.o
 .debug_abbrev  0x0000000000003da9      0x29a /home/senior/Desktop/SandBoxGit/objects/printk.o
 .debug_abbrev  0x0000000000004043       0xc4 /home/senior/Desktop/SandBoxGit/objects/service1_K.o
 .debug_abbrev  0x0000000000004107       0x88 /home/senior/Desktop/SandBoxGit/objects/checksum.o
 .debug_abbrev  0x000000000000418f      0x561 /home/senior/Desktop/SandBoxGit/objects/MemoryPageMap.o
 .debug_abbrev  0x00000000000046f0      0x310 /home/senior/Desktop/SandBoxGit/objects/SharedMemory.o
 .debug_abbrev  0x0000000000004a00      0x305 /home/senior/Desktop/SandBoxGit/objects/BlockService.o
 .debug_abbrev  0x0000000000004d05      0x112 /home/senior/Desktop/SandBoxGit/objects/Service.o
 .debug_abbrev  0x0000000000004e17      0x153 /home/senior/Desktop/SandBoxGit/objects/ServiceTransport.o
 .debug_abbrev  0x0000000000004f6a       0xd5 /home/senior/Desktop/SandBoxGit/objects/numbers.o
 .debug_abbrev  0x000000000000503f      0x2fa /home/senior/Desktop/SandBoxGit/objects/rtl8139.o
 .debug_abbrev  0x0000000000005339      0x2d0 /home/senior/Desktop/SandBoxGit/objects/ethernet.o
 .debug_abbrev  0x0000000000005609      0x188 /home/senior/Desktop/SandBoxGit/objects/Spinlock.o
 .debug_abbrev  0x0000000000005791      0x1b6 /home/senior/Desktop/SandBoxGit/objects/KMalloc.o
 .debug_abbrev  0x0000000000005947      0x30e /home/senior/Desktop/SandBoxGit/objects/keyboard.o
 .debug_abbrev  0x0000000000005c55       0xf4 /home/senior/Desktop/SandBoxGit/objects/hamada_K.o
 .debug_abbrev  0x0000000000005d49       0xf4 /home/senior/Desktop/SandBoxGit/objects/hamada_U.o
 .debug_abbrev  0x0000000000005e3d       0xda /home/senior/Desktop/SandBoxGit/objects/service1_U.o
 .debug_abbrev  0x0000000000005f17       0xa5 /home/senior/Desktop/SandBoxGit/objects/Kernel.o
 .debug_abbrev  0x0000000000005fbc      0x39c /home/senior/Desktop/SandBoxGit/objects/KernelMain.o

.debug_loc      0x0000000000000000    0x1b5d6
 .debug_loc     0x0000000000000000      0x24d /home/senior/Desktop/SandBoxGit/objects/pit.o
 .debug_loc     0x000000000000024d     0x1f6f /home/senior/Desktop/SandBoxGit/objects/PhysicalMemory.o
 .debug_loc     0x00000000000021bc     0x1075 /home/senior/Desktop/SandBoxGit/objects/ClockUtils.o
 .debug_loc     0x0000000000003231      0xdc3 /home/senior/Desktop/SandBoxGit/objects/MemoryUtilities.o
 .debug_loc     0x0000000000003ff4      0x1c2 /home/senior/Desktop/SandBoxGit/objects/memcpy.o
 .debug_loc     0x00000000000041b6      0xa88 /home/senior/Desktop/SandBoxGit/objects/pci_device.o
 .debug_loc     0x0000000000004c3e      0x7b3 /home/senior/Desktop/SandBoxGit/objects/pci_service.o
 .debug_loc     0x00000000000053f1      0x1c2 /home/senior/Desktop/SandBoxGit/objects/memswap.o
 .debug_loc     0x00000000000055b3      0x109 /home/senior/Desktop/SandBoxGit/objects/ipi.o
 .debug_loc     0x00000000000056bc     0x19af /home/senior/Desktop/SandBoxGit/objects/Terminal.o
 .debug_loc     0x000000000000706b      0x741 /home/senior/Desktop/SandBoxGit/objects/Console.o
 .debug_loc     0x00000000000077ac      0x94b /home/senior/Desktop/SandBoxGit/objects/ACPI.o
 .debug_loc     0x00000000000080f7      0xa4c /home/senior/Desktop/SandBoxGit/objects/APIC.o
 .debug_loc     0x0000000000008b43     0x2176 /home/senior/Desktop/SandBoxGit/objects/ATADisk.o
 .debug_loc     0x000000000000acb9      0xcdb /home/senior/Desktop/SandBoxGit/objects/ATAManager.o
 .debug_loc     0x000000000000b994      0x25e /home/senior/Desktop/SandBoxGit/objects/TSSDescriptor.o
 .debug_loc     0x000000000000bbf2       0x3d /home/senior/Desktop/SandBoxGit/objects/GlobalDescriptorTableEntry.o
 .debug_loc     0x000000000000bc2f      0x284 /home/senior/Desktop/SandBoxGit/objects/InterruptManager.o
 .debug_loc     0x000000000000beb3     0x755f /home/senior/Desktop/SandBoxGit/objects/InterruptDescriptorTable.o
 .debug_loc     0x0000000000013412       0xa2 /home/senior/Desktop/SandBoxGit/objects/isr_stub.o
 .debug_loc     0x00000000000134b4      0x3f4 /home/senior/Desktop/SandBoxGit/objects/APICManager.o
 .debug_loc     0x00000000000138a8       0x6f /home/senior/Desktop/SandBoxGit/objects/Ports.o
 .debug_loc     0x0000000000013917      0x129 /home/senior/Desktop/SandBoxGit/objects/CoreUtils.o
 .debug_loc     0x0000000000013a40      0x1e9 /home/senior/Desktop/SandBoxGit/objects/NetUtils.o
 .debug_loc     0x0000000000013c29      0x68c /home/senior/Desktop/SandBoxGit/objects/stdio.o
 .debug_loc     0x00000000000142b5      0x1fc /home/senior/Desktop/SandBoxGit/objects/printk.o
 .debug_loc     0x00000000000144b1       0x4a /home/senior/Desktop/SandBoxGit/objects/service1_K.o
 .debug_loc     0x00000000000144fb      0x163 /home/senior/Desktop/SandBoxGit/objects/checksum.o
 .debug_loc     0x000000000001465e     0x3cab /home/senior/Desktop/SandBoxGit/objects/MemoryPageMap.o
 .debug_loc     0x0000000000018309     0x108e /home/senior/Desktop/SandBoxGit/objects/SharedMemory.o
 .debug_loc     0x0000000000019397      0x267 /home/senior/Desktop/SandBoxGit/objects/BlockService.o
 .debug_loc     0x00000000000195fe       0xf4 /home/senior/Desktop/SandBoxGit/objects/ServiceTransport.o
 .debug_loc     0x00000000000196f2      0x1c4 /home/senior/Desktop/SandBoxGit/objects/numbers.o
 .debug_loc     0x00000000000198b6      0x324 /home/senior/Desktop/SandBoxGit/objects/rtl8139.o
 .debug_loc     0x0000000000019bda      0x35d /home/senior/Desktop/SandBoxGit/objects/ethernet.o
 .debug_loc     0x0000000000019f37      0x341 /home/senior/Desktop/SandBoxGit/objects/Spinlock.o
 .debug_loc     0x000000000001a278      0xa05 /home/senior/Desktop/SandBoxGit/objects/KMalloc.o
 .debug_loc     0x000000000001ac7d      0x154 /home/senior/Desktop/SandBoxGit/objects/keyboard.o
 .debug_loc     0x000000000001add1       0xf4 /home/senior/Desktop/SandBoxGit/objects/hamada_K.o
 .debug_loc     0x000000000001aec5       0x7a /home/senior/Desktop/SandBoxGit/objects/hamada_U.o
 .debug_loc     0x000000000001af3f       0x7a /home/senior/Desktop/SandBoxGit/objects/service1_U.o
 .debug_loc     0x000000000001afb9      0x61d /home/senior/Desktop/SandBoxGit/objects/KernelMain.o

.debug_aranges  0x0000000000000000      0x8a0
 .debug_aranges
                0x0000000000000000       0x30 /home/senior/Desktop/SandBoxGit/objects/pit.o
 .debug_aranges
                0x0000000000000030       0x30 /home/senior/Desktop/SandBoxGit/objects/PhysicalMemory.o
 .debug_aranges
                0x0000000000000060       0x30 /home/senior/Desktop/SandBoxGit/objects/ClockUtils.o
 .debug_aranges
                0x0000000000000090       0x30 /home/senior/Desktop/SandBoxGit/objects/MemoryUtilities.o
 .debug_aranges
                0x00000000000000c0       0x30 /home/senior/Desktop/SandBoxGit/objects/memcpy.o
 .debug_aranges
                0x00000000000000f0       0x30 /home/senior/Desktop/SandBoxGit/objects/pci_device.o
 .debug_aranges
                0x0000000000000120       0x30 /home/senior/Desktop/SandBoxGit/objects/pci_service.o
 .debug_aranges
                0x0000000000000150       0x30 /home/senior/Desktop/SandBoxGit/objects/memswap.o
 .debug_aranges
                0x0000000000000180       0x30 /home/senior/Desktop/SandBoxGit/objects/ipi.o
 .debug_aranges
                0x00000000000001b0       0x30 /home/senior/Desktop/SandBoxGit/objects/Terminal.o
 .debug_aranges
                0x00000000000001e0       0x30 /home/senior/Desktop/SandBoxGit/objects/Console.o
 .debug_aranges
                0x0000000000000210       0x30 /home/senior/Desktop/SandBoxGit/objects/ACPI.o
 .debug_aranges
                0x0000000000000240       0x30 /home/senior/Desktop/SandBoxGit/objects/APIC.o
 .debug_aranges
                0x0000000000000270       0x30 /home/senior/Desktop/SandBoxGit/objects/ATADisk.o
 .debug_aranges
                0x00000000000002a0       0x30 /home/senior/Desktop/SandBoxGit/objects/ATAManager.o
 .debug_aranges
                0x00000000000002d0       0x30 /home/senior/Desktop/SandBoxGit/objects/TSSDescriptor.o
 .debug_aranges
                0x0000000000000300       0x30 /home/senior/Desktop/SandBoxGit/objects/GlobalDescriptorTableEntry.o
 .debug_aranges
                0x0000000000000330       0x30 /home/senior/Desktop/SandBoxGit/objects/GlobalDescriptorTable.o
 .debug_aranges
                0x0000000000000360       0x30 /home/senior/Desktop/SandBoxGit/objects/InterruptManager.o
 .debug_aranges
                0x0000000000000390       0x30 /home/senior/Desktop/SandBoxGit/objects/InterruptDescriptorTable.o
 .debug_aranges
                0x00000000000003c0       0x30 /home/senior/Desktop/SandBoxGit/objects/isr_stub.o
 .debug_aranges
                0x00000000000003f0       0x30 /home/senior/Desktop/SandBoxGit/objects/APICManager.o
 .debug_aranges
                0x0000000000000420       0x30 /home/senior/Desktop/SandBoxGit/objects/Ports.o
 .debug_aranges
                0x0000000000000450       0x30 /home/senior/Desktop/SandBoxGit/objects/CoreUtils.o
 .debug_aranges
                0x0000000000000480       0x30 /home/senior/Desktop/SandBoxGit/objects/NetUtils.o
 .debug_aranges
                0x00000000000004b0       0x30 /home/senior/Desktop/SandBoxGit/objects/MMIOUtils.o
 .debug_aranges
                0x00000000000004e0       0x30 /home/senior/Desktop/SandBoxGit/objects/stdio.o
 .debug_aranges
                0x0000000000000510       0x30 /home/senior/Desktop/SandBoxGit/objects/printk.o
 .debug_aranges
                0x0000000000000540       0x30 /home/senior/Desktop/SandBoxGit/objects/service1_K.o
 .debug_aranges
                0x0000000000000570       0x30 /home/senior/Desktop/SandBoxGit/objects/checksum.o
 .debug_aranges
                0x00000000000005a0       0x30 /home/senior/Desktop/SandBoxGit/objects/MemoryPageMap.o
 .debug_aranges
                0x00000000000005d0       0x30 /home/senior/Desktop/SandBoxGit/objects/SharedMemory.o
 .debug_aranges
                0x0000000000000600       0x30 /home/senior/Desktop/SandBoxGit/objects/BlockService.o
 .debug_aranges
                0x0000000000000630       0x30 /home/senior/Desktop/SandBoxGit/objects/Service.o
 .debug_aranges
                0x0000000000000660       0x30 /home/senior/Desktop/SandBoxGit/objects/ServiceTransport.o
 .debug_aranges
                0x0000000000000690       0x30 /home/senior/Desktop/SandBoxGit/objects/numbers.o
 .debug_aranges
                0x00000000000006c0       0x30 /home/senior/Desktop/SandBoxGit/objects/rtl8139.o
 .debug_aranges
                0x00000000000006f0       0x30 /home/senior/Desktop/SandBoxGit/objects/ethernet.o
 .debug_aranges
                0x0000000000000720       0x30 /home/senior/Desktop/SandBoxGit/objects/Spinlock.o
 .debug_aranges
                0x0000000000000750       0x30 /home/senior/Desktop/SandBoxGit/objects/KMalloc.o
 .debug_aranges
                0x0000000000000780       0x30 /home/senior/Desktop/SandBoxGit/objects/keyboard.o
 .debug_aranges
                0x00000000000007b0       0x30 /home/senior/Desktop/SandBoxGit/objects/hamada_K.o
 .debug_aranges
                0x00000000000007e0       0x30 /home/senior/Desktop/SandBoxGit/objects/hamada_U.o
 .debug_aranges
                0x0000000000000810       0x30 /home/senior/Desktop/SandBoxGit/objects/service1_U.o
 .debug_aranges
                0x0000000000000840       0x30 /home/senior/Desktop/SandBoxGit/objects/Kernel.o
 .debug_aranges
                0x0000000000000870       0x30 /home/senior/Desktop/SandBoxGit/objects/KernelMain.o

.debug_line     0x0000000000000000    0x156f0
 .debug_line    0x0000000000000000      0x746 /home/senior/Desktop/SandBoxGit/objects/pit.o
 .debug_line    0x0000000000000746      0xff3 /home/senior/Desktop/SandBoxGit/objects/PhysicalMemory.o
 .debug_line    0x0000000000001739      0x6ba /home/senior/Desktop/SandBoxGit/objects/ClockUtils.o
 .debug_line    0x0000000000001df3      0x421 /home/senior/Desktop/SandBoxGit/objects/MemoryUtilities.o
 .debug_line    0x0000000000002214      0xa0f /home/senior/Desktop/SandBoxGit/objects/memcpy.o
 .debug_line    0x0000000000002c23      0x36f /home/senior/Desktop/SandBoxGit/objects/pci_device.o
 .debug_line    0x0000000000002f92      0x90c /home/senior/Desktop/SandBoxGit/objects/pci_service.o
 .debug_line    0x000000000000389e      0xa14 /home/senior/Desktop/SandBoxGit/objects/memswap.o
 .debug_line    0x00000000000042b2      0x5e9 /home/senior/Desktop/SandBoxGit/objects/ipi.o
 .debug_line    0x000000000000489b      0x6c7 /home/senior/Desktop/SandBoxGit/objects/Terminal.o
 .debug_line    0x0000000000004f62      0x888 /home/senior/Desktop/SandBoxGit/objects/Console.o
 .debug_line    0x00000000000057ea      0x9ac /home/senior/Desktop/SandBoxGit/objects/ACPI.o
 .debug_line    0x0000000000006196      0xaa4 /home/senior/Desktop/SandBoxGit/objects/APIC.o
 .debug_line    0x0000000000006c3a     0x1451 /home/senior/Desktop/SandBoxGit/objects/ATADisk.o
 .debug_line    0x000000000000808b      0xf1a /home/senior/Desktop/SandBoxGit/objects/ATAManager.o
 .debug_line    0x0000000000008fa5      0x1e1 /home/senior/Desktop/SandBoxGit/objects/TSSDescriptor.o
 .debug_line    0x0000000000009186      0x14e /home/senior/Desktop/SandBoxGit/objects/GlobalDescriptorTableEntry.o
 .debug_line    0x00000000000092d4      0x74d /home/senior/Desktop/SandBoxGit/objects/GlobalDescriptorTable.o
 .debug_line    0x0000000000009a21      0x661 /home/senior/Desktop/SandBoxGit/objects/InterruptManager.o
 .debug_line    0x000000000000a082     0x44af /home/senior/Desktop/SandBoxGit/objects/InterruptDescriptorTable.o
 .debug_line    0x000000000000e531      0x654 /home/senior/Desktop/SandBoxGit/objects/isr_stub.o
 .debug_line    0x000000000000eb85      0x846 /home/senior/Desktop/SandBoxGit/objects/APICManager.o
 .debug_line    0x000000000000f3cb       0xc9 /home/senior/Desktop/SandBoxGit/objects/Ports.o
 .debug_line    0x000000000000f494       0xdc /home/senior/Desktop/SandBoxGit/objects/CoreUtils.o
 .debug_line    0x000000000000f570      0x227 /home/senior/Desktop/SandBoxGit/objects/NetUtils.o
 .debug_line    0x000000000000f797       0xe5 /home/senior/Desktop/SandBoxGit/objects/MMIOUtils.o
 .debug_line    0x000000000000f87c      0x402 /home/senior/Desktop/SandBoxGit/objects/stdio.o
 .debug_line    0x000000000000fc7e      0x7c7 /home/senior/Desktop/SandBoxGit/objects/printk.o
 .debug_line    0x0000000000010445       0x9a /home/senior/Desktop/SandBoxGit/objects/service1_K.o
 .debug_line    0x00000000000104df      0x10a /home/senior/Desktop/SandBoxGit/objects/checksum.o
 .debug_line    0x00000000000105e9     0x1189 /home/senior/Desktop/SandBoxGit/objects/MemoryPageMap.o
 .debug_line    0x0000000000011772      0x91e /home/senior/Desktop/SandBoxGit/objects/SharedMemory.o
 .debug_line    0x0000000000012090      0x791 /home/senior/Desktop/SandBoxGit/objects/BlockService.o
 .debug_line    0x0000000000012821       0xd3 /home/senior/Desktop/SandBoxGit/objects/Service.o
 .debug_line    0x00000000000128f4      0x164 /home/senior/Desktop/SandBoxGit/objects/ServiceTransport.o
 .debug_line    0x0000000000012a58      0x19d /home/senior/Desktop/SandBoxGit/objects/numbers.o
 .debug_line    0x0000000000012bf5      0x912 /home/senior/Desktop/SandBoxGit/objects/rtl8139.o
 .debug_line    0x0000000000013507      0x6df /home/senior/Desktop/SandBoxGit/objects/ethernet.o
 .debug_line    0x0000000000013be6      0x28a /home/senior/Desktop/SandBoxGit/objects/Spinlock.o
 .debug_line    0x0000000000013e70      0x414 /home/senior/Desktop/SandBoxGit/objects/KMalloc.o
 .debug_line    0x0000000000014284      0x71e /home/senior/Desktop/SandBoxGit/objects/keyboard.o
 .debug_line    0x00000000000149a2       0xa1 /home/senior/Desktop/SandBoxGit/objects/hamada_K.o
 .debug_line    0x0000000000014a43       0x8d /home/senior/Desktop/SandBoxGit/objects/hamada_U.o
 .debug_line    0x0000000000014ad0       0xd0 /home/senior/Desktop/SandBoxGit/objects/service1_U.o
 .debug_line    0x0000000000014ba0       0x6c /home/senior/Desktop/SandBoxGit/objects/Kernel.o
 .debug_line    0x0000000000014c0c      0xae4 /home/senior/Desktop/SandBoxGit/objects/KernelMain.o

.debug_str      0x0000000000000000     0x3b03
 .debug_str     0x0000000000000000     0x1113 /home/senior/Desktop/SandBoxGit/objects/pit.o
                                       0x1526 (size before relaxing)
 .debug_str     0x0000000000001113      0x40c /home/senior/Desktop/SandBoxGit/objects/PhysicalMemory.o
                                       0x1810 (size before relaxing)
 .debug_str     0x000000000000151f      0x13a /home/senior/Desktop/SandBoxGit/objects/ClockUtils.o
                                        0x2c5 (size before relaxing)
 .debug_str     0x0000000000001659       0xb9 /home/senior/Desktop/SandBoxGit/objects/MemoryUtilities.o
                                        0x286 (size before relaxing)
 .debug_str     0x0000000000001712       0x43 /home/senior/Desktop/SandBoxGit/objects/memcpy.o
                                        0x1f2 (size before relaxing)
 .debug_str     0x0000000000001755      0x148 /home/senior/Desktop/SandBoxGit/objects/pci_device.o
                                        0x397 (size before relaxing)
 .debug_str     0x000000000000189d      0x16a /home/senior/Desktop/SandBoxGit/objects/pci_service.o
                                       0x15ac (size before relaxing)
 .debug_str     0x0000000000001a07       0x47 /home/senior/Desktop/SandBoxGit/objects/memswap.o
                                        0x1f7 (size before relaxing)
 .debug_str     0x0000000000001a4e       0x80 /home/senior/Desktop/SandBoxGit/objects/ipi.o
                                       0x1471 (size before relaxing)
 .debug_str     0x0000000000001ace      0x2bc /home/senior/Desktop/SandBoxGit/objects/Terminal.o
                                        0x4c7 (size before relaxing)
 .debug_str     0x0000000000001d8a      0x141 /home/senior/Desktop/SandBoxGit/objects/Console.o
                                       0x15c5 (size before relaxing)
 .debug_str     0x0000000000001ecb      0x128 /home/senior/Desktop/SandBoxGit/objects/ACPI.o
                                       0x1555 (size before relaxing)
 .debug_str     0x0000000000001ff3      0x1a0 /home/senior/Desktop/SandBoxGit/objects/APIC.o
                                       0x15f2 (size before relaxing)
 .debug_str     0x0000000000002193      0x21a /home/senior/Desktop/SandBoxGit/objects/ATADisk.o
                                       0x16bf (size before relaxing)
 .debug_str     0x00000000000023ad      0x15f /home/senior/Desktop/SandBoxGit/objects/ATAManager.o
                                       0x1698 (size before relaxing)
 .debug_str     0x000000000000250c       0x7b /home/senior/Desktop/SandBoxGit/objects/TSSDescriptor.o
                                        0x2a3 (size before relaxing)
 .debug_str     0x0000000000002587       0xd1 /home/senior/Desktop/SandBoxGit/objects/GlobalDescriptorTableEntry.o
                                        0x305 (size before relaxing)
 .debug_str     0x0000000000002658       0x4d /home/senior/Desktop/SandBoxGit/objects/GlobalDescriptorTable.o
                                       0x150d (size before relaxing)
 .debug_str     0x00000000000026a5       0xc4 /home/senior/Desktop/SandBoxGit/objects/InterruptManager.o
                                       0x1587 (size before relaxing)
 .debug_str     0x0000000000002769       0xc1 /home/senior/Desktop/SandBoxGit/objects/InterruptDescriptorTable.o
                                       0x150e (size before relaxing)
 .debug_str     0x000000000000282a       0x17 /home/senior/Desktop/SandBoxGit/objects/isr_stub.o
                                       0x14eb (size before relaxing)
 .debug_str     0x0000000000002841       0xab /home/senior/Desktop/SandBoxGit/objects/APICManager.o
                                       0x157e (size before relaxing)
 .debug_str     0x00000000000028ec       0x1c /home/senior/Desktop/SandBoxGit/objects/Ports.o
                                        0x1e4 (size before relaxing)
 .debug_str     0x0000000000002908       0x31 /home/senior/Desktop/SandBoxGit/objects/CoreUtils.o
                                        0x1fb (size before relaxing)
 .debug_str     0x0000000000002939       0x2a /home/senior/Desktop/SandBoxGit/objects/NetUtils.o
                                        0x1c2 (size before relaxing)
 .debug_str     0x0000000000002963       0x6e /home/senior/Desktop/SandBoxGit/objects/MMIOUtils.o
                                        0x21e (size before relaxing)
 .debug_str     0x00000000000029d1       0xaa /home/senior/Desktop/SandBoxGit/objects/stdio.o
                                        0x277 (size before relaxing)
 .debug_str     0x0000000000002a7b       0x2f /home/senior/Desktop/SandBoxGit/objects/printk.o
                                       0x1629 (size before relaxing)
 .debug_str     0x0000000000002aaa       0x7e /home/senior/Desktop/SandBoxGit/objects/service1_K.o
                                        0x1da (size before relaxing)
 .debug_str     0x0000000000002b28       0x13 /home/senior/Desktop/SandBoxGit/objects/checksum.o
                                        0x1bf (size before relaxing)
 .debug_str     0x0000000000002b3b      0x519 /home/senior/Desktop/SandBoxGit/objects/MemoryPageMap.o
                                       0x1a0d (size before relaxing)
 .debug_str     0x0000000000003054      0x1d7 /home/senior/Desktop/SandBoxGit/objects/SharedMemory.o
                                       0x167f (size before relaxing)
 .debug_str     0x000000000000322b       0x66 /home/senior/Desktop/SandBoxGit/objects/BlockService.o
                                       0x14a7 (size before relaxing)
 .debug_str     0x0000000000003291       0x66 /home/senior/Desktop/SandBoxGit/objects/Service.o
                                        0x250 (size before relaxing)
 .debug_str     0x00000000000032f7       0xcd /home/senior/Desktop/SandBoxGit/objects/ServiceTransport.o
                                        0x35e (size before relaxing)
 .debug_str     0x00000000000033c4       0x1a /home/senior/Desktop/SandBoxGit/objects/numbers.o
                                        0x1c0 (size before relaxing)
 .debug_str     0x00000000000033de      0x14e /home/senior/Desktop/SandBoxGit/objects/rtl8139.o
                                       0x169e (size before relaxing)
 .debug_str     0x000000000000352c       0x78 /home/senior/Desktop/SandBoxGit/objects/ethernet.o
                                       0x14ea (size before relaxing)
 .debug_str     0x00000000000035a4       0x83 /home/senior/Desktop/SandBoxGit/objects/Spinlock.o
                                        0x24d (size before relaxing)
 .debug_str     0x0000000000003627       0x98 /home/senior/Desktop/SandBoxGit/objects/KMalloc.o
                                        0x381 (size before relaxing)
 .debug_str     0x00000000000036bf       0x79 /home/senior/Desktop/SandBoxGit/objects/keyboard.o
                                       0x1534 (size before relaxing)
 .debug_str     0x0000000000003738       0x4c /home/senior/Desktop/SandBoxGit/objects/hamada_K.o
                                        0x1e3 (size before relaxing)
 .debug_str     0x0000000000003784       0x3f /home/senior/Desktop/SandBoxGit/objects/hamada_U.o
                                        0x1db (size before relaxing)
 .debug_str     0x00000000000037c3       0x41 /home/senior/Desktop/SandBoxGit/objects/service1_U.o
                                        0x1d9 (size before relaxing)
 .debug_str     0x0000000000003804       0x62 /home/senior/Desktop/SandBoxGit/objects/Kernel.o
                                        0x125 (size before relaxing)
 .debug_str     0x0000000000003866      0x29d /home/senior/Desktop/SandBoxGit/objects/KernelMain.o
                                       0x1aba (size before relaxing)

.comment        0x0000000000000000       0x11
 .comment       0x0000000000000000       0x11 /home/senior/Desktop/SandBoxGit/objects/pit.o
                                         0x12 (size before relaxing)
 .comment       0x0000000000000011       0x12 /home/senior/Desktop/SandBoxGit/objects/PhysicalMemory.o
 .comment       0x0000000000000011       0x12 /home/senior/Desktop/SandBoxGit/objects/ClockUtils.o
 .comment       0x0000000000000011       0x12 /home/senior/Desktop/SandBoxGit/objects/MemoryUtilities.o
 .comment       0x0000000000000011       0x12 /home/senior/Desktop/SandBoxGit/objects/memcpy.o
 .comment       0x0000000000000011       0x12 /home/senior/Desktop/SandBoxGit/objects/pci_device.o
 .comment       0x0000000000000011       0x12 /home/senior/Desktop/SandBoxGit/objects/pci_service.o
 .comment       0x0000000000000011       0x12 /home/senior/Desktop/SandBoxGit/objects/memswap.o
 .comment       0x0000000000000011       0x12 /home/senior/Desktop/SandBoxGit/objects/ipi.o
 .comment       0x0000000000000011       0x12 /home/senior/Desktop/SandBoxGit/objects/Terminal.o
 .comment       0x0000000000000011       0x12 /home/senior/Desktop/SandBoxGit/objects/Console.o
 .comment       0x0000000000000011       0x12 /home/senior/Desktop/SandBoxGit/objects/ACPI.o
 .comment       0x0000000000000011       0x12 /home/senior/Desktop/SandBoxGit/objects/APIC.o
 .comment       0x0000000000000011       0x12 /home/senior/Desktop/SandBoxGit/objects/ATADisk.o
 .comment       0x0000000000000011       0x12 /home/senior/Desktop/SandBoxGit/objects/ATAManager.o
 .comment       0x0000000000000011       0x12 /home/senior/Desktop/SandBoxGit/objects/TSSDescriptor.o
 .comment       0x0000000000000011       0x12 /home/senior/Desktop/SandBoxGit/objects/GlobalDescriptorTableEntry.o
 .comment       0x0000000000000011       0x12 /home/senior/Desktop/SandBoxGit/objects/GlobalDescriptorTable.o
 .comment       0x0000000000000011       0x12 /home/senior/Desktop/SandBoxGit/objects/InterruptManager.o
 .comment       0x0000000000000011       0x12 /home/senior/Desktop/SandBoxGit/objects/InterruptDescriptorTable.o
 .comment       0x0000000000000011       0x12 /home/senior/Desktop/SandBoxGit/objects/isr_stub.o
 .comment       0x0000000000000011       0x12 /home/senior/Desktop/SandBoxGit/objects/APICManager.o
 .comment       0x0000000000000011       0x12 /home/senior/Desktop/SandBoxGit/objects/Ports.o
 .comment       0x0000000000000011       0x12 /home/senior/Desktop/SandBoxGit/objects/CoreUtils.o
 .comment       0x0000000000000011       0x12 /home/senior/Desktop/SandBoxGit/objects/NetUtils.o
 .comment       0x0000000000000011       0x12 /home/senior/Desktop/SandBoxGit/objects/MMIOUtils.o
 .comment       0x0000000000000011       0x12 /home/senior/Desktop/SandBoxGit/objects/stdio.o
 .comment       0x0000000000000011       0x12 /home/senior/Desktop/SandBoxGit/objects/printk.o
 .comment       0x0000000000000011       0x12 /home/senior/Desktop/SandBoxGit/objects/service1_K.o
 .comment       0x0000000000000011       0x12 /home/senior/Desktop/SandBoxGit/objects/checksum.o
 .comment       0x0000000000000011       0x12 /home/senior/Desktop/SandBoxGit/objects/MemoryPageMap.o
 .comment       0x0000000000000011       0x12 /home/senior/Desktop/SandBoxGit/objects/SharedMemory.o
 .comment       0x0000000000000011       0x12 /home/senior/Desktop/SandBoxGit/objects/BlockService.o
 .comment       0x0000000000000011       0x12 /home/senior/Desktop/SandBoxGit/objects/Service.o
 .comment       0x0000000000000011       0x12 /home/senior/Desktop/SandBoxGit/objects/ServiceTransport.o
 .comment       0x0000000000000011       0x12 /home/senior/Desktop/SandBoxGit/objects/numbers.o
 .comment       0x0000000000000011       0x12 /home/senior/Desktop/SandBoxGit/objects/rtl8139.o
 .comment       0x0000000000000011       0x12 /home/senior/Desktop/SandBoxGit/objects/ethernet.o
 .comment       0x0000000000000011       0x12 /home/senior/Desktop/SandBoxGit/objects/Spinlock.o
 .comment       0x0000000000000011       0x12 /home/senior/Desktop/SandBoxGit/objects/KMalloc.o
 .comment       0x0000000000000011       0x12 /home/senior/Desktop/SandBoxGit/objects/keyboard.o
 .comment       0x0000000000000011       0x12 /home/senior/Desktop/SandBoxGit/objects/hamada_K.o
 .comment       0x0000000000000011       0x12 /home/senior/Desktop/SandBoxGit/objects/hamada_U.o
 .comment       0x0000000000000011       0x12 /home/senior/Desktop/SandBoxGit/objects/service1_U.o
 .comment       0x0000000000000011       0x12 /home/senior/Desktop/SandBoxGit/objects/Kernel.o
 .comment       0x0000000000000011       0x12 /home/senior/Desktop/SandBoxGit/objects/KernelMain.o

.debug_ranges   0x0000000000000000     0x6890
 .debug_ranges  0x0000000000000000      0x4c0 /home/senior/Desktop/SandBoxGit/objects/PhysicalMemory.o
 .debug_ranges  0x00000000000004c0      0x460 /home/senior/Desktop/SandBoxGit/objects/ClockUtils.o
 .debug_ranges  0x0000000000000920      0x100 /home/senior/Desktop/SandBoxGit/objects/MemoryUtilities.o
 .debug_ranges  0x0000000000000a20      0x230 /home/senior/Desktop/SandBoxGit/objects/pci_service.o
 .debug_ranges  0x0000000000000c50      0x180 /home/senior/Desktop/SandBoxGit/objects/Terminal.o
 .debug_ranges  0x0000000000000dd0       0x30 /home/senior/Desktop/SandBoxGit/objects/Console.o
 .debug_ranges  0x0000000000000e00      0x200 /home/senior/Desktop/SandBoxGit/objects/ACPI.o
 .debug_ranges  0x0000000000001000       0xd0 /home/senior/Desktop/SandBoxGit/objects/APIC.o
 .debug_ranges  0x00000000000010d0      0x3e0 /home/senior/Desktop/SandBoxGit/objects/ATADisk.o
 .debug_ranges  0x00000000000014b0      0x6b0 /home/senior/Desktop/SandBoxGit/objects/ATAManager.o
 .debug_ranges  0x0000000000001b60      0x100 /home/senior/Desktop/SandBoxGit/objects/TSSDescriptor.o
 .debug_ranges  0x0000000000001c60     0x44a0 /home/senior/Desktop/SandBoxGit/objects/InterruptDescriptorTable.o
 .debug_ranges  0x0000000000006100       0xa0 /home/senior/Desktop/SandBoxGit/objects/APICManager.o
 .debug_ranges  0x00000000000061a0       0x30 /home/senior/Desktop/SandBoxGit/objects/CoreUtils.o
 .debug_ranges  0x00000000000061d0       0x40 /home/senior/Desktop/SandBoxGit/objects/NetUtils.o
 .debug_ranges  0x0000000000006210      0x1f0 /home/senior/Desktop/SandBoxGit/objects/stdio.o
 .debug_ranges  0x0000000000006400      0x210 /home/senior/Desktop/SandBoxGit/objects/MemoryPageMap.o
 .debug_ranges  0x0000000000006610       0xf0 /home/senior/Desktop/SandBoxGit/objects/SharedMemory.o
 .debug_ranges  0x0000000000006700       0x30 /home/senior/Desktop/SandBoxGit/objects/BlockService.o
 .debug_ranges  0x0000000000006730       0x40 /home/senior/Desktop/SandBoxGit/objects/Spinlock.o
 .debug_ranges  0x0000000000006770       0x30 /home/senior/Desktop/SandBoxGit/objects/KMalloc.o
 .debug_ranges  0x00000000000067a0       0x90 /home/senior/Desktop/SandBoxGit/objects/keyboard.o
 .debug_ranges  0x0000000000006830       0x60 /home/senior/Desktop/SandBoxGit/objects/KernelMain.o
